Component: ARM Compiler 5.06 update 6 (build 750) Tool: armlink [4d35ed]

==============================================================================

Section Cross References

    startup_n32wb03x.o(RESET) refers to startup_n32wb03x.o(STACK) for __initial_sp
    startup_n32wb03x.o(RESET) refers to startup_n32wb03x.o(.text) for Reset_Handler
    startup_n32wb03x.o(RESET) refers to bsp_timer.o(i.SysTick_Handler) for SysTick_Handler
    startup_n32wb03x.o(RESET) refers to bsp_usart.o(i.DMA_Channel1_2_3_4_IRQHandler) for DMA_Channel1_2_3_4_IRQHandler
    startup_n32wb03x.o(RESET) refers to bsp_usart.o(i.USART1_IRQHandler) for USART1_IRQHandler
    startup_n32wb03x.o(.text) refers to system_n32wb03x.o(i.SystemInit) for SystemInit
    startup_n32wb03x.o(.text) refers to entry.o(.ARM.Collect$$$$00000000) for __main
    system_n32wb03x.o(i.OTPTrim_Read) refers to memseta.o(.text) for __aeabi_memclr4
    system_n32wb03x.o(i.OTPTrim_Read) refers to memcpya.o(.text) for __aeabi_memcpy
    system_n32wb03x.o(i.OTPTrim_Read) refers to system_n32wb03x.o(.constdata) for .constdata
    system_n32wb03x.o(i.SystemCoreClockUpdate) refers to system_n32wb03x.o(.data) for .data
    system_n32wb03x.o(i.SystemGetMacAddr) refers to system_n32wb03x.o(i.OTPTrim_Read) for OTPTrim_Read
    system_n32wb03x.o(i.SystemGetMacAddr) refers to system_n32wb03x.o(.bss) for .bss
    system_n32wb03x.o(i.SystemGetUUID) refers to system_n32wb03x.o(i.OTPTrim_Read) for OTPTrim_Read
    system_n32wb03x.o(i.SystemGetUUID) refers to system_n32wb03x.o(.bss) for .bss
    system_n32wb03x.o(i.SystemInit) refers to system_n32wb03x.o(i.OTPTrim_Read) for OTPTrim_Read
    system_n32wb03x.o(i.SystemInit) refers to system_n32wb03x.o(.emb_text) for system_delay_cycles
    system_n32wb03x.o(i.SystemInit) refers to system_n32wb03x.o(.bss) for .bss
    system_n32wb03x.o(i.SystemTrimValueGet) refers to system_n32wb03x.o(i.OTPTrim_Read) for OTPTrim_Read
    system_n32wb03x.o(i.SystemTrimValueGet) refers to system_n32wb03x.o(.bss) for .bss
    system_n32wb03x.o(i.SystemTrimValueRead) refers to system_n32wb03x.o(i.OTPTrim_Read) for OTPTrim_Read
    system_n32wb03x.o(i.system_delay_n_10us) refers to system_n32wb03x.o(.emb_text) for system_delay_cycles
    n32wb03x_adc.o(i.ADC16Bit_ConverValueToVoltage) refers to system_n32wb03x.o(i.SystemTrimValueGet) for SystemTrimValueGet
    n32wb03x_adc.o(i.ADC16Bit_ConverValueToVoltage) refers to idiv.o(.text) for __aeabi_idivmod
    n32wb03x_adc.o(i.ADC_ConverValueToTemperature) refers to system_n32wb03x.o(i.SystemTrimValueGet) for SystemTrimValueGet
    n32wb03x_adc.o(i.ADC_ConverValueToTemperature) refers to ffltui.o(.text) for __aeabi_ui2f
    n32wb03x_adc.o(i.ADC_ConverValueToTemperature) refers to fadd.o(.text) for __aeabi_frsub
    n32wb03x_adc.o(i.ADC_ConverValueToTemperature) refers to f2d.o(.text) for __aeabi_f2d
    n32wb03x_adc.o(i.ADC_ConverValueToTemperature) refers to ddiv.o(.text) for __aeabi_ddiv
    n32wb03x_adc.o(i.ADC_ConverValueToTemperature) refers to dadd.o(.text) for __aeabi_dadd
    n32wb03x_adc.o(i.ADC_ConverValueToTemperature) refers to d2f.o(.text) for __aeabi_d2f
    n32wb03x_adc.o(i.ADC_ConverValueToVoltage) refers to system_n32wb03x.o(i.SystemTrimValueGet) for SystemTrimValueGet
    n32wb03x_adc.o(i.ADC_ConverValueToVoltage) refers to idiv.o(.text) for __aeabi_idivmod
    n32wb03x_adc.o(i.ADC_DeInit) refers to n32wb03x_rcc.o(i.RCC_EnableAHBPeriphReset) for RCC_EnableAHBPeriphReset
    n32wb03x_adc.o(i.ADC_DeInit) refers to n32wb03x_rcc.o(i.RCC_EnableAHBPeriphClk) for RCC_EnableAHBPeriphClk
    n32wb03x_gpio.o(i.GPIO_AFIOInitDefault) refers to n32wb03x_rcc.o(i.RCC_EnableAPB2PeriphReset) for RCC_EnableAPB2PeriphReset
    n32wb03x_gpio.o(i.GPIO_DeInit) refers to n32wb03x_rcc.o(i.RCC_EnableAPB2PeriphReset) for RCC_EnableAPB2PeriphReset
    n32wb03x_rcc.o(i.RCC_GetClocksFreqValue) refers to n32wb03x_rcc.o(.constdata) for .constdata
    n32wb03x_rcc.o(i.RCC_WaitHseStable) refers to n32wb03x_rcc.o(i.RCC_GetFlagStatus) for RCC_GetFlagStatus
    n32wb03x_rcc.o(i.RCC_WaitHsiStable) refers to n32wb03x_rcc.o(i.RCC_GetFlagStatus) for RCC_GetFlagStatus
    n32wb03x_tim.o(i.TIM_ConfigExtTrigAsClk) refers to n32wb03x_tim.o(i.ConfigTI1) for ConfigTI1
    n32wb03x_tim.o(i.TIM_ConfigExtTrigAsClk) refers to n32wb03x_tim.o(i.ConfigTI2) for ConfigTI2
    n32wb03x_tim.o(i.TIM_ConfigPwmIc) refers to n32wb03x_tim.o(i.ConfigTI2) for ConfigTI2
    n32wb03x_tim.o(i.TIM_ConfigPwmIc) refers to n32wb03x_tim.o(i.ConfigTI1) for ConfigTI1
    n32wb03x_tim.o(i.TIM_DeInit) refers to n32wb03x_rcc.o(i.RCC_EnableAPB2PeriphReset) for RCC_EnableAPB2PeriphReset
    n32wb03x_tim.o(i.TIM_DeInit) refers to n32wb03x_rcc.o(i.RCC_EnableAPB1PeriphReset) for RCC_EnableAPB1PeriphReset
    n32wb03x_tim.o(i.TIM_ICInit) refers to n32wb03x_tim.o(i.ConfigTI1) for ConfigTI1
    n32wb03x_tim.o(i.TIM_ICInit) refers to n32wb03x_tim.o(i.ConfigTI2) for ConfigTI2
    n32wb03x_usart.o(i.USART_DeInit) refers to n32wb03x_rcc.o(i.RCC_EnableAPB2PeriphReset) for RCC_EnableAPB2PeriphReset
    n32wb03x_usart.o(i.USART_DeInit) refers to n32wb03x_rcc.o(i.RCC_EnableAPB1PeriphReset) for RCC_EnableAPB1PeriphReset
    n32wb03x_usart.o(i.USART_Init) refers to n32wb03x_rcc.o(i.RCC_GetClocksFreqValue) for RCC_GetClocksFreqValue
    n32wb03x_usart.o(i.USART_Init) refers to uidiv.o(.text) for __aeabi_uidivmod
    n32wb03x_spi.o(i.I2S_Init) refers to n32wb03x_rcc.o(i.RCC_GetClocksFreqValue) for RCC_GetClocksFreqValue
    n32wb03x_spi.o(i.I2S_Init) refers to uidiv.o(.text) for __aeabi_uidivmod
    n32wb03x_spi.o(i.SPI_I2S_DeInit) refers to n32wb03x_rcc.o(i.RCC_EnableAPB2PeriphReset) for RCC_EnableAPB2PeriphReset
    n32wb03x_lpuart.o(i.LPUART_Init) refers to n32wb03x_rcc.o(i.RCC_GetLpuartClkSrc) for RCC_GetLpuartClkSrc
    n32wb03x_lpuart.o(i.LPUART_Init) refers to n32wb03x_rcc.o(i.RCC_GetClocksFreqValue) for RCC_GetClocksFreqValue
    n32wb03x_lpuart.o(i.LPUART_Init) refers to uidiv.o(.text) for __aeabi_uidivmod
    n32wb03x_qflash.o(i.Qflash_Erase_Sector) refers to n32wb03x_qflash.o(.data) for .data
    n32wb03x_qflash.o(i.Qflash_Init) refers to memcpya.o(.text) for __aeabi_memcpy
    n32wb03x_qflash.o(i.Qflash_Init) refers to n32wb03x_qflash.o(.bss) for .bss
    n32wb03x_qflash.o(i.Qflash_Init) refers to n32wb03x_qflash.o(.data) for .data
    n32wb03x_qflash.o(i.Qflash_Init) refers to n32wb03x_qflash.o(.constdata) for .constdata
    n32wb03x_qflash.o(i.Qflash_Read) refers to n32wb03x_qflash.o(.data) for .data
    n32wb03x_qflash.o(i.Qflash_Write) refers to n32wb03x_qflash.o(.data) for .data
    lib_att.o(i.attm_att_set_value) refers to memcpya.o(.text) for __aeabi_memcpy
    rwip.o(i.rwip_init) refers to rwip_driver.o(i.llhwc_phy_prerx_flash) for llhwc_phy_prerx_flash
    rwip_driver.o(i.llhwc_modem_setmode) refers to rwip_driver.o(i.llhwc_setmode_reg_config) for llhwc_setmode_reg_config
    rwip_driver.o(i.llhwc_modem_setmode) refers to rwip_driver.o(.data) for .data
    rwip_driver.o(i.llhwc_phy_prerx_flash) refers to rwip_driver.o(i.llhwc_setmode_reg_config) for llhwc_setmode_reg_config
    rwip_driver.o(i.llhwc_phy_prerx_flash) refers to rwip_driver.o(.data) for .data
    rwip_driver.o(i.llhwc_setmode_reg_config) refers to ns_ble.o(.bss) for app_env
    rwip_driver.o(i.llhwc_setmode_reg_config) refers to rwip_driver.o(.data) for .data
    rwip_driver.o(i.radio_freq_cal_from_trim) refers to rwip_driver.o(.data) for .data
    rwip_driver.o(i.radio_hse_mco_set) refers to ffltui.o(.text) for __aeabi_ui2f
    rwip_driver.o(i.radio_hse_mco_set) refers to fflti.o(.text) for __aeabi_i2f
    rwip_driver.o(i.radio_hse_mco_set) refers to fdiv.o(.text) for __aeabi_fdiv
    rwip_driver.o(i.radio_hse_mco_set) refers to fmul.o(.text) for __aeabi_fmul
    rwip_driver.o(i.radio_hse_mco_set) refers to ffixui.o(.text) for __aeabi_f2uiz
    rwip_driver.o(i.radio_hse_mco_set) refers to fadd.o(.text) for __aeabi_fadd
    rwip_driver.o(i.radio_hse_mco_set) refers to rwip_driver.o(.data) for .data
    rwip_driver.o(i.radio_read_trim_mac_address) refers to system_n32wb03x.o(i.OTPTrim_Read) for OTPTrim_Read
    rwip_driver.o(i.radio_read_trim_mco_freq) refers to system_n32wb03x.o(i.OTPTrim_Read) for OTPTrim_Read
    rwip_driver.o(i.rf_tx_power_set) refers to rwip_driver.o(.data) for .data
    rwip_driver.o(i.rf_tx_power_set) refers to rwip_driver.o(.constdata) for .constdata
    rwip_driver.o(i.rwip_sleep) refers to uidiv.o(.text) for __aeabi_uidivmod
    rwip_driver.o(i.rwip_sleep) refers to rwip_driver.o(i.__ARM_common_ll_mulss) for __ARM_common_ll_mulss
    rwip_driver.o(i.rwip_sleep) refers to uldiv.o(.text) for __aeabi_uldivmod
    rwip_driver.o(i.rwip_sleep) refers to ns_ble.o(.bss) for app_env
    rwip_driver.o(i.rwip_slp_isr) refers to dfltui.o(.text) for __aeabi_ui2d
    rwip_driver.o(i.rwip_slp_isr) refers to ddiv.o(.text) for __aeabi_ddiv
    rwip_driver.o(i.rwip_slp_isr) refers to dfltul.o(.text) for __aeabi_ul2d
    rwip_driver.o(i.rwip_slp_isr) refers to dmul.o(.text) for __aeabi_dmul
    rwip_driver.o(i.rwip_slp_isr) refers to dfixul.o(.text) for __aeabi_d2ulz
    rwip_driver.o(i.rwip_slp_isr) refers to uldiv.o(.text) for __aeabi_uldivmod
    rwip_driver.o(i.rwip_slp_isr) refers to rwip_driver.o(i.llhwc_phy_prerx_flash) for llhwc_phy_prerx_flash
    rwip_driver.o(i.rwip_slp_isr) refers to rwip_driver.o(.data) for .data
    rwip_driver.o(i.rwip_slp_isr) refers to rwip_driver.o(.constdata) for .constdata
    prf.o(i.prf_add_profile) refers to prf.o(i.prf_itf_get) for prf_itf_get
    prf.o(i.prf_add_profile) refers to prf.o(.bss) for .bss
    prf.o(i.prf_cleanup) refers to prf.o(.bss) for .bss
    prf.o(i.prf_create) refers to prf.o(.bss) for .bss
    prf.o(i.prf_env_get) refers to prf.o(.bss) for .bss
    prf.o(i.prf_get_id_from_task) refers to prf.o(.bss) for .bss
    prf.o(i.prf_get_itf_func_register) refers to prf.o(.bss) for .bss
    prf.o(i.prf_get_task_from_id) refers to prf.o(.bss) for .bss
    prf.o(i.prf_init) refers to prf.o(.bss) for .bss
    prf.o(i.prf_itf_get) refers to prf.o(.bss) for .bss
    diss.o(i.diss_init) refers to diss_task.o(i.diss_task_init) for diss_task_init
    diss.o(i.diss_init) refers to diss.o(.constdata) for .constdata
    diss.o(i.diss_prf_itf_get) refers to diss.o(.constdata) for .constdata
    diss.o(.constdata) refers to diss.o(i.diss_init) for diss_init
    diss.o(.constdata) refers to diss.o(i.diss_destroy) for diss_destroy
    diss.o(.constdata) refers to diss.o(i.diss_create) for diss_create
    diss.o(.constdata) refers to diss.o(i.diss_cleanup) for diss_cleanup
    diss_task.o(i.diss_set_value_req_handler) refers to prf.o(i.prf_env_get) for prf_env_get
    diss_task.o(i.diss_set_value_req_handler) refers to diss.o(i.diss_value_to_handle) for diss_value_to_handle
    diss_task.o(i.diss_set_value_req_handler) refers to diss.o(i.diss_check_val_len) for diss_check_val_len
    diss_task.o(i.diss_set_value_req_handler) refers to memcpya.o(.text) for __aeabi_memcpy
    diss_task.o(i.diss_task_init) refers to prf.o(i.prf_env_get) for prf_env_get
    diss_task.o(i.diss_task_init) refers to diss_task.o(.constdata) for .constdata
    diss_task.o(i.diss_value_cfm_handler) refers to prf.o(i.prf_env_get) for prf_env_get
    diss_task.o(i.diss_value_cfm_handler) refers to diss.o(i.diss_value_to_handle) for diss_value_to_handle
    diss_task.o(i.diss_value_cfm_handler) refers to memcpya.o(.text) for __aeabi_memcpy
    diss_task.o(i.gattc_read_req_ind_handler) refers to prf.o(i.prf_env_get) for prf_env_get
    diss_task.o(i.gattc_read_req_ind_handler) refers to diss.o(i.diss_handle_to_value) for diss_handle_to_value
    diss_task.o(i.gattc_read_req_ind_handler) refers to memcpya.o(.text) for __aeabi_memcpy
    diss_task.o(i.gattc_read_req_ind_handler) refers to prf.o(i.prf_dst_task_get) for prf_dst_task_get
    diss_task.o(.constdata) refers to diss_task.o(i.diss_set_value_req_handler) for diss_set_value_req_handler
    diss_task.o(.constdata) refers to diss_task.o(i.gattc_read_req_ind_handler) for gattc_read_req_ind_handler
    diss_task.o(.constdata) refers to diss_task.o(i.diss_value_cfm_handler) for diss_value_cfm_handler
    rdtss.o(i.rdtss_cleanup) refers to rdtss_task.o(i.rdtss_set_ccc_value) for rdtss_set_ccc_value
    rdtss.o(i.rdtss_create) refers to rdtss_task.o(i.rdtss_set_ccc_value) for rdtss_set_ccc_value
    rdtss.o(i.rdtss_init) refers to rdtss_task.o(i.rdtss_task_init) for rdtss_task_init
    rdtss.o(i.rdtss_init) refers to rdtss_task.o(i.rdtss_init_ccc_values) for rdtss_init_ccc_values
    rdtss.o(i.rdtss_prf_itf_get) refers to rdtss.o(.constdata) for .constdata
    rdtss.o(.constdata) refers to rdtss.o(i.rdtss_init) for rdtss_init
    rdtss.o(.constdata) refers to rdtss.o(i.rdtss_destroy) for rdtss_destroy
    rdtss.o(.constdata) refers to rdtss.o(i.rdtss_create) for rdtss_create
    rdtss.o(.constdata) refers to rdtss.o(i.rdtss_cleanup) for rdtss_cleanup
    rdtss_task.o(i.gattc_att_info_req_ind_handler) refers to prf.o(i.prf_env_get) for prf_env_get
    rdtss_task.o(i.gattc_cmp_evt_handler) refers to prf.o(i.prf_env_get) for prf_env_get
    rdtss_task.o(i.gattc_read_req_ind_handler) refers to prf.o(i.prf_env_get) for prf_env_get
    rdtss_task.o(i.gattc_read_req_ind_handler) refers to rdts_common.o(i.rdtss_get_att_idx) for rdtss_get_att_idx
    rdtss_task.o(i.gattc_read_req_ind_handler) refers to rdtss_task.o(i.rdtss_att_get_value) for rdtss_att_get_value
    rdtss_task.o(i.gattc_read_req_ind_handler) refers to prf.o(i.prf_dst_task_get) for prf_dst_task_get
    rdtss_task.o(i.gattc_read_req_ind_handler) refers to memcpya.o(.text) for __aeabi_memcpy
    rdtss_task.o(i.gattc_write_req_ind_handler) refers to prf.o(i.prf_env_get) for prf_env_get
    rdtss_task.o(i.gattc_write_req_ind_handler) refers to rdts_common.o(i.rdtss_get_att_idx) for rdtss_get_att_idx
    rdtss_task.o(i.gattc_write_req_ind_handler) refers to rdts_common.o(i.get_value_handle) for get_value_handle
    rdtss_task.o(i.gattc_write_req_ind_handler) refers to rdts_common.o(i.check_client_char_cfg) for check_client_char_cfg
    rdtss_task.o(i.gattc_write_req_ind_handler) refers to rdtss_task.o(i.rdtss_att_get_value) for rdtss_att_get_value
    rdtss_task.o(i.gattc_write_req_ind_handler) refers to memcpya.o(.text) for __aeabi_memcpy
    rdtss_task.o(i.gattc_write_req_ind_handler) refers to rdtss_task.o(i.rdtss_att_set_value) for rdtss_att_set_value
    rdtss_task.o(i.gattc_write_req_ind_handler) refers to prf.o(i.prf_dst_task_get) for prf_dst_task_get
    rdtss_task.o(i.rdtss_att_get_value) refers to prf.o(i.prf_env_get) for prf_env_get
    rdtss_task.o(i.rdtss_att_info_rsp_handler) refers to prf.o(i.prf_env_get) for prf_env_get
    rdtss_task.o(i.rdtss_att_set_value) refers to prf.o(i.prf_env_get) for prf_env_get
    rdtss_task.o(i.rdtss_att_set_value) refers to memcpya.o(.text) for __aeabi_memcpy
    rdtss_task.o(i.rdtss_init_ccc_values) refers to prf.o(i.prf_env_get) for prf_env_get
    rdtss_task.o(i.rdtss_init_ccc_values) refers to memcpya.o(.text) for __aeabi_memcpy
    rdtss_task.o(i.rdtss_set_ccc_value) refers to rdtss_task.o(i.rdtss_att_get_value) for rdtss_att_get_value
    rdtss_task.o(i.rdtss_set_ccc_value) refers to memcpya.o(.text) for __aeabi_memcpy
    rdtss_task.o(i.rdtss_set_ccc_value) refers to rdtss_task.o(i.rdtss_att_set_value) for rdtss_att_set_value
    rdtss_task.o(i.rdtss_task_init) refers to prf.o(i.prf_env_get) for prf_env_get
    rdtss_task.o(i.rdtss_task_init) refers to rdtss_task.o(.constdata) for .constdata
    rdtss_task.o(i.rdtss_val_ind_req_handler) refers to prf.o(i.prf_env_get) for prf_env_get
    rdtss_task.o(i.rdtss_val_ind_req_handler) refers to rdts_common.o(i.get_cfg_handle) for get_cfg_handle
    rdtss_task.o(i.rdtss_val_ind_req_handler) refers to rdts_common.o(i.rdtss_get_att_idx) for rdtss_get_att_idx
    rdtss_task.o(i.rdtss_val_ind_req_handler) refers to rdtss_task.o(i.rdtss_att_get_value) for rdtss_att_get_value
    rdtss_task.o(i.rdtss_val_ind_req_handler) refers to memcpya.o(.text) for __aeabi_memcpy
    rdtss_task.o(i.rdtss_val_ntf_req_handler) refers to prf.o(i.prf_env_get) for prf_env_get
    rdtss_task.o(i.rdtss_val_ntf_req_handler) refers to rdts_common.o(i.get_cfg_handle) for get_cfg_handle
    rdtss_task.o(i.rdtss_val_ntf_req_handler) refers to rdts_common.o(i.rdtss_get_att_idx) for rdtss_get_att_idx
    rdtss_task.o(i.rdtss_val_ntf_req_handler) refers to printf8.o(i.__0printf$8) for __2printf
    rdtss_task.o(i.rdtss_val_ntf_req_handler) refers to rdtss_task.o(i.rdtss_att_get_value) for rdtss_att_get_value
    rdtss_task.o(i.rdtss_val_ntf_req_handler) refers to memcpya.o(.text) for __aeabi_memcpy
    rdtss_task.o(i.rdtss_val_set_req_handler) refers to prf.o(i.prf_env_get) for prf_env_get
    rdtss_task.o(i.rdtss_val_set_req_handler) refers to lib_att.o(i.attm_att_set_value) for attm_att_set_value
    rdtss_task.o(i.rdtss_value_req_rsp_handler) refers to rdts_common.o(i.rdtss_get_att_handle) for rdtss_get_att_handle
    rdtss_task.o(i.rdtss_value_req_rsp_handler) refers to memcpya.o(.text) for __aeabi_memcpy
    rdtss_task.o(.constdata) refers to rdtss_task.o(i.gattc_read_req_ind_handler) for gattc_read_req_ind_handler
    rdtss_task.o(.constdata) refers to rdtss_task.o(i.gattc_write_req_ind_handler) for gattc_write_req_ind_handler
    rdtss_task.o(.constdata) refers to rdtss_task.o(i.gattc_att_info_req_ind_handler) for gattc_att_info_req_ind_handler
    rdtss_task.o(.constdata) refers to rdtss_task.o(i.gattc_cmp_evt_handler) for gattc_cmp_evt_handler
    rdtss_task.o(.constdata) refers to rdtss_task.o(i.rdtss_val_ntf_req_handler) for rdtss_val_ntf_req_handler
    rdtss_task.o(.constdata) refers to rdtss_task.o(i.rdtss_val_set_req_handler) for rdtss_val_set_req_handler
    rdtss_task.o(.constdata) refers to rdtss_task.o(i.rdtss_val_ind_req_handler) for rdtss_val_ind_req_handler
    rdtss_task.o(.constdata) refers to rdtss_task.o(i.rdtss_att_info_rsp_handler) for rdtss_att_info_rsp_handler
    rdtss_task.o(.constdata) refers to rdtss_task.o(i.rdtss_value_req_rsp_handler) for rdtss_value_req_rsp_handler
    rdts_common.o(i.rdtss_get_att_handle) refers to prf.o(i.prf_env_get) for prf_env_get
    rdts_common.o(i.rdtss_get_att_idx) refers to prf.o(i.prf_env_get) for prf_env_get
    ns_log_lpuart.o(i.GPIO_Configuration) refers to n32wb03x_rcc.o(i.RCC_EnableAPB2PeriphClk) for RCC_EnableAPB2PeriphClk
    ns_log_lpuart.o(i.GPIO_Configuration) refers to n32wb03x_gpio.o(i.GPIO_InitStruct) for GPIO_InitStruct
    ns_log_lpuart.o(i.GPIO_Configuration) refers to n32wb03x_gpio.o(i.GPIO_InitPeripheral) for GPIO_InitPeripheral
    ns_log_lpuart.o(i.RCC_Configuration) refers to n32wb03x_rcc.o(i.RCC_ConfigLpuartClk) for RCC_ConfigLpuartClk
    ns_log_lpuart.o(i.RCC_Configuration) refers to n32wb03x_rcc.o(i.RCC_EnableLpuartClk) for RCC_EnableLpuartClk
    ns_log_lpuart.o(i.fputc) refers to n32wb03x_lpuart.o(i.LPUART_SendData) for LPUART_SendData
    ns_log_lpuart.o(i.fputc) refers to n32wb03x_lpuart.o(i.LPUART_GetFlagStatus) for LPUART_GetFlagStatus
    ns_log_lpuart.o(i.fputc) refers to n32wb03x_lpuart.o(i.LPUART_ClrFlag) for LPUART_ClrFlag
    ns_log_lpuart.o(i.fputc) refers to ns_log_lpuart.o(.data) for .data
    ns_log_lpuart.o(i.ns_log_lpuart_init) refers to n32wb03x_rcc.o(i.RCC_ConfigLpuartClk) for RCC_ConfigLpuartClk
    ns_log_lpuart.o(i.ns_log_lpuart_init) refers to n32wb03x_rcc.o(i.RCC_EnableLpuartClk) for RCC_EnableLpuartClk
    ns_log_lpuart.o(i.ns_log_lpuart_init) refers to n32wb03x_rcc.o(i.RCC_EnableAPB2PeriphClk) for RCC_EnableAPB2PeriphClk
    ns_log_lpuart.o(i.ns_log_lpuart_init) refers to n32wb03x_gpio.o(i.GPIO_InitStruct) for GPIO_InitStruct
    ns_log_lpuart.o(i.ns_log_lpuart_init) refers to n32wb03x_gpio.o(i.GPIO_InitPeripheral) for GPIO_InitPeripheral
    ns_log_lpuart.o(i.ns_log_lpuart_init) refers to n32wb03x_lpuart.o(i.LPUART_DeInit) for LPUART_DeInit
    ns_log_lpuart.o(i.ns_log_lpuart_init) refers to n32wb03x_lpuart.o(i.LPUART_Init) for LPUART_Init
    ns_sleep.o(i.entry_sleep) refers to ns_ble.o(i.ns_iwdg_config) for ns_iwdg_config
    ns_sleep.o(i.entry_sleep) refers to ns_log_lpuart.o(i.ns_log_lpuart_init) for ns_log_lpuart_init
    ns_sleep.o(i.ns_sleep) refers to main.o(i.app_sleep_prepare_proc) for app_sleep_prepare_proc
    ns_sleep.o(i.ns_sleep) refers to rwip_driver.o(i.rwip_sleep) for rwip_sleep
    ns_sleep.o(i.ns_sleep) refers to ns_sleep.o(i.entry_sleep) for entry_sleep
    ns_sleep.o(i.ns_sleep) refers to main.o(i.app_sleep_resume_proc) for app_sleep_resume_proc
    ns_sleep.o(i.ns_sleep) refers to ns_sleep.o(.data) for .data
    ns_sleep.o(i.ns_sleep_lock_acquire) refers to ns_sleep.o(.data) for .data
    ns_sleep.o(i.ns_sleep_lock_release) refers to ns_sleep.o(.data) for .data
    ns_error.o(i.error_handler) refers to ns_error.o(.bss) for .bss
    ns_timer.o(i.ns_timer_api_process_handler) refers to ns_timer.o(.bss) for .bss
    ns_timer.o(i.ns_timer_api_process_handler) refers to ns_timer.o(i.timer_modified_handler) for timer_modified_handler
    ns_timer.o(i.ns_timer_api_process_handler) refers to ns_timer.o(i.timer_canceled_handler) for timer_canceled_handler
    ns_timer.o(i.ns_timer_cancel) refers to ns_timer.o(.bss) for .bss
    ns_timer.o(i.ns_timer_cancel) refers to ns_timer.o(i.timer_canceled_handler) for timer_canceled_handler
    ns_timer.o(i.ns_timer_cancel_all) refers to ns_timer.o(i.timer_canceled_handler) for timer_canceled_handler
    ns_timer.o(i.ns_timer_cancel_all) refers to ns_timer.o(.bss) for .bss
    ns_timer.o(i.ns_timer_create) refers to ns_timer.o(.bss) for .bss
    ns_timer.o(i.ns_timer_modify) refers to ns_timer.o(.bss) for .bss
    ns_timer.o(i.ns_timer_modify) refers to ns_timer.o(i.timer_modified_handler) for timer_modified_handler
    ns_sec.o(i.gapc_bond_ind_handler) refers to ns_ble.o(i.ns_ble_disconnect) for ns_ble_disconnect
    ns_sec.o(i.gapc_bond_ind_handler) refers to memcpya.o(.text) for __aeabi_memcpy
    ns_sec.o(i.gapc_bond_ind_handler) refers to ns_ble.o(.bss) for app_env
    ns_sec.o(i.gapc_bond_ind_handler) refers to ns_sec.o(.bss) for .bss
    ns_sec.o(i.gapc_bond_req_ind_handler) refers to rand.o(.text) for rand
    ns_sec.o(i.gapc_bond_req_ind_handler) refers to memcpya.o(.text) for __aeabi_memcpy
    ns_sec.o(i.gapc_bond_req_ind_handler) refers to uidiv.o(.text) for __aeabi_uidivmod
    ns_sec.o(i.gapc_bond_req_ind_handler) refers to memseta.o(.text) for __aeabi_memclr
    ns_sec.o(i.gapc_bond_req_ind_handler) refers to ns_sec.o(.bss) for .bss
    ns_sec.o(i.gapc_bond_req_ind_handler) refers to ns_ble.o(.bss) for app_env
    ns_sec.o(i.gapc_encrypt_ind_handler) refers to ns_sec.o(.bss) for .bss
    ns_sec.o(i.gapc_encrypt_req_ind_handler) refers to memseta.o(.text) for __aeabi_memclr4
    ns_sec.o(i.gapc_encrypt_req_ind_handler) refers to ns_sec.o(i.ns_bond_db_get_size) for ns_bond_db_get_size
    ns_sec.o(i.gapc_encrypt_req_ind_handler) refers to memcpya.o(.text) for __aeabi_memcpy
    ns_sec.o(i.gapc_encrypt_req_ind_handler) refers to memcmp.o(.text) for memcmp
    ns_sec.o(i.gapc_encrypt_req_ind_handler) refers to printf8.o(i.__0printf$8) for __2printf
    ns_sec.o(i.gapc_encrypt_req_ind_handler) refers to ns_sec.o(.bss) for .bss
    ns_sec.o(i.ns_bond_db_get_size) refers to n32wb03x_qflash.o(i.Qflash_Erase_Sector) for Qflash_Erase_Sector
    ns_sec.o(i.ns_bond_db_get_size) refers to ns_sec.o(.bss) for .bss
    ns_sec.o(i.ns_bond_db_load) refers to memcpya.o(.text) for __aeabi_memcpy
    ns_sec.o(i.ns_bond_db_load) refers to ns_sec.o(.bss) for .bss
    ns_sec.o(i.ns_bond_last_bonded_addr) refers to memseta.o(.text) for __aeabi_memclr4
    ns_sec.o(i.ns_bond_last_bonded_addr) refers to ns_sec.o(i.ns_bond_db_get_size) for ns_bond_db_get_size
    ns_sec.o(i.ns_bond_last_bonded_addr) refers to ns_sec.o(i.ns_bond_db_load) for ns_bond_db_load
    ns_sec.o(i.ns_bond_last_bonded_peer_id) refers to memseta.o(.text) for __aeabi_memclr4
    ns_sec.o(i.ns_bond_last_bonded_peer_id) refers to ns_sec.o(i.ns_bond_db_get_size) for ns_bond_db_get_size
    ns_sec.o(i.ns_bond_last_bonded_peer_id) refers to ns_sec.o(i.ns_bond_db_load) for ns_bond_db_load
    ns_sec.o(i.ns_bond_last_bonded_ral_info) refers to memseta.o(.text) for __aeabi_memclr4
    ns_sec.o(i.ns_bond_last_bonded_ral_info) refers to ns_sec.o(i.ns_bond_db_get_size) for ns_bond_db_get_size
    ns_sec.o(i.ns_bond_last_bonded_ral_info) refers to ns_sec.o(i.ns_bond_db_load) for ns_bond_db_load
    ns_sec.o(i.ns_bond_last_bonded_ral_info) refers to memcpya.o(.text) for __aeabi_memcpy
    ns_sec.o(i.ns_bond_last_bonded_ral_info) refers to ns_ble.o(.bss) for gap_env
    ns_sec.o(i.ns_bond_resolv_addr_start) refers to ns_sec.o(i.ns_bond_db_get_size) for ns_bond_db_get_size
    ns_sec.o(i.ns_bond_resolv_addr_start) refers to memseta.o(.text) for __aeabi_memclr4
    ns_sec.o(i.ns_bond_resolv_addr_start) refers to ns_sec.o(i.ns_bond_db_load) for ns_bond_db_load
    ns_sec.o(i.ns_bond_resolv_addr_start) refers to memcpya.o(.text) for __aeabi_memcpy
    ns_sec.o(i.ns_bond_search_addr_irk) refers to memseta.o(.text) for __aeabi_memclr4
    ns_sec.o(i.ns_bond_search_addr_irk) refers to ns_sec.o(i.ns_bond_db_get_size) for ns_bond_db_get_size
    ns_sec.o(i.ns_bond_search_addr_irk) refers to memcpya.o(.text) for __aeabi_memcpy
    ns_sec.o(i.ns_bond_search_addr_irk) refers to memcmp.o(.text) for memcmp
    ns_sec.o(i.ns_bond_search_addr_irk) refers to ns_sec.o(i.ns_bond_resolv_addr_start) for ns_bond_resolv_addr_start
    ns_sec.o(i.ns_bond_search_addr_irk) refers to ns_sec.o(.bss) for .bss
    ns_sec.o(i.ns_bond_search_addr_irk) refers to ns_ble.o(.bss) for app_env
    ns_sec.o(i.ns_sec_bond_db_erase_all) refers to n32wb03x_qflash.o(i.Qflash_Erase_Sector) for Qflash_Erase_Sector
    ns_sec.o(i.ns_sec_bond_db_erase_all) refers to ns_sec.o(.bss) for .bss
    ns_sec.o(i.ns_sec_bond_store_evt_handler) refers to memseta.o(.text) for __aeabi_memclr4
    ns_sec.o(i.ns_sec_bond_store_evt_handler) refers to ns_sec.o(i.ns_bond_db_get_size) for ns_bond_db_get_size
    ns_sec.o(i.ns_sec_bond_store_evt_handler) refers to memcpya.o(.text) for __aeabi_memcpy
    ns_sec.o(i.ns_sec_bond_store_evt_handler) refers to n32wb03x_qflash.o(i.Qflash_Erase_Sector) for Qflash_Erase_Sector
    ns_sec.o(i.ns_sec_bond_store_evt_handler) refers to n32wb03x_qflash.o(i.Qflash_Write) for Qflash_Write
    ns_sec.o(i.ns_sec_bond_store_evt_handler) refers to printf8.o(i.__0printf$8) for __2printf
    ns_sec.o(i.ns_sec_bond_store_evt_handler) refers to ns_ble.o(i.ns_ble_list_set_ral) for ns_ble_list_set_ral
    ns_sec.o(i.ns_sec_bond_store_evt_handler) refers to ns_sec.o(.bss) for .bss
    ns_sec.o(i.ns_sec_bond_store_evt_handler) refers to ns_ble.o(.bss) for gap_env
    ns_sec.o(i.ns_sec_get_bond_status) refers to ns_sec.o(.bss) for .bss
    ns_sec.o(i.ns_sec_get_iocap) refers to ns_sec.o(.bss) for .bss
    ns_sec.o(i.ns_sec_init) refers to n32wb03x_qflash.o(i.Qflash_Init) for Qflash_Init
    ns_sec.o(i.ns_sec_init) refers to ns_sec.o(i.ns_bond_db_get_size) for ns_bond_db_get_size
    ns_sec.o(i.ns_sec_init) refers to ns_sec.o(.bss) for .bss
    ns_sec.o(i.ns_sec_pincode_respond) refers to memseta.o(.text) for __aeabi_memclr
    ns_sec.o(i.ns_sec_send_bond_start) refers to ns_sec.o(.bss) for .bss
    ns_sec.o(i.ns_sec_send_encrypt_req) refers to memseta.o(.text) for __aeabi_memclr4
    ns_sec.o(i.ns_sec_send_encrypt_req) refers to ns_sec.o(i.ns_bond_db_get_size) for ns_bond_db_get_size
    ns_sec.o(i.ns_sec_send_encrypt_req) refers to memcpya.o(.text) for __aeabi_memcpy
    ns_sec.o(i.ns_sec_send_encrypt_req) refers to memcmp.o(.text) for memcmp
    ns_sec.o(i.ns_sec_send_encrypt_req) refers to ns_sec.o(.bss) for .bss
    ns_sec.o(i.ns_sec_send_encrypt_req) refers to ns_ble.o(.bss) for app_env
    ns_sec.o(i.ns_sec_send_security_req) refers to ns_sec.o(.bss) for .bss
    ns_sec.o(.constdata) refers to ns_sec.o(i.app_sec_msg_dflt_handler) for app_sec_msg_dflt_handler
    ns_sec.o(.constdata) refers to ns_sec.o(i.gapc_bond_req_ind_handler) for gapc_bond_req_ind_handler
    ns_sec.o(.constdata) refers to ns_sec.o(i.gapc_bond_ind_handler) for gapc_bond_ind_handler
    ns_sec.o(.constdata) refers to ns_sec.o(i.gapc_encrypt_req_ind_handler) for gapc_encrypt_req_ind_handler
    ns_sec.o(.constdata) refers to ns_sec.o(i.gapc_encrypt_ind_handler) for gapc_encrypt_ind_handler
    ns_sec.o(.constdata) refers to ns_sec.o(.constdata) for app_sec_msg_handler_list
    ns_ble.o(i.app_create_advertising) refers to ns_sec.o(i.ns_sec_get_bond_status) for ns_sec_get_bond_status
    ns_ble.o(i.app_create_advertising) refers to ns_sec.o(i.ns_bond_last_bonded_peer_id) for ns_bond_last_bonded_peer_id
    ns_ble.o(i.app_create_advertising) refers to ns_ble.o(.bss) for .bss
    ns_ble.o(i.app_set_adv_data) refers to memcpya.o(.text) for __aeabi_memcpy
    ns_ble.o(i.app_set_adv_data) refers to ns_ble.o(.bss) for .bss
    ns_ble.o(i.app_set_scan_rsp_data) refers to memcpya.o(.text) for __aeabi_memcpy
    ns_ble.o(i.app_set_scan_rsp_data) refers to ns_ble.o(.bss) for .bss
    ns_ble.o(i.app_start_advertising) refers to rwip_driver.o(i.llhwc_modem_setmode) for llhwc_modem_setmode
    ns_ble.o(i.app_start_advertising) refers to ns_ble.o(.bss) for .bss
    ns_ble.o(i.ns_EXTI4_12_IRQHandler) refers to n32wb03x_exti.o(i.EXTI_GetITStatus) for EXTI_GetITStatus
    ns_ble.o(i.ns_EXTI4_12_IRQHandler) refers to n32wb03x_exti.o(i.EXTI_ClrITPendBit) for EXTI_ClrITPendBit
    ns_ble.o(i.ns_EXTI4_12_IRQHandler) refers to ns_log_lpuart.o(i.ns_log_lpuart_init) for ns_log_lpuart_init
    ns_ble.o(i.ns_EXTI4_12_IRQHandler) refers to printf8.o(i.__0printf$8) for __2printf
    ns_ble.o(i.ns_EXTI4_12_IRQHandler) refers to ns_ble.o(.data) for .data
    ns_ble.o(i.ns_HardFault_Handler) refers to ns_log_lpuart.o(i.ns_log_lpuart_init) for ns_log_lpuart_init
    ns_ble.o(i.ns_HardFault_Handler) refers to printf8.o(i.__0printf$8) for __2printf
    ns_ble.o(i.ns_HardFault_Handler) refers to ns_ble.o(.data) for .data
    ns_ble.o(i.ns_HardFault_Handler) refers to ns_ble.o(.constdata) for .constdata
    ns_ble.o(i.ns_ble_active_rssi) refers to ns_ble.o(.bss) for .bss
    ns_ble.o(i.ns_ble_add_prf_func_register) refers to ns_ble.o(.bss) for .bss
    ns_ble.o(i.ns_ble_add_svc) refers to ns_ble.o(.bss) for .bss
    ns_ble.o(i.ns_ble_adv_data_set) refers to memcpya.o(.text) for __aeabi_memcpy
    ns_ble.o(i.ns_ble_adv_data_set) refers to ns_ble.o(i.app_set_adv_data) for app_set_adv_data
    ns_ble.o(i.ns_ble_adv_data_set) refers to ns_ble.o(.bss) for .bss
    ns_ble.o(i.ns_ble_adv_fsm_next) refers to ns_ble.o(i.app_create_advertising) for app_create_advertising
    ns_ble.o(i.ns_ble_adv_fsm_next) refers to ns_ble.o(i.app_set_adv_data) for app_set_adv_data
    ns_ble.o(i.ns_ble_adv_fsm_next) refers to ns_ble.o(i.app_start_advertising) for app_start_advertising
    ns_ble.o(i.ns_ble_adv_fsm_next) refers to ns_ble.o(i.app_set_scan_rsp_data) for app_set_scan_rsp_data
    ns_ble.o(i.ns_ble_adv_fsm_next) refers to ns_ble.o(.bss) for .bss
    ns_ble.o(i.ns_ble_adv_init) refers to memcpya.o(.text) for __aeabi_memcpy4
    ns_ble.o(i.ns_ble_adv_init) refers to ns_ble.o(.bss) for .bss
    ns_ble.o(i.ns_ble_adv_start) refers to ns_ble.o(i.app_create_advertising) for app_create_advertising
    ns_ble.o(i.ns_ble_adv_start) refers to ns_ble.o(.bss) for .bss
    ns_ble.o(i.ns_ble_adv_stop) refers to ns_ble.o(.bss) for .bss
    ns_ble.o(i.ns_ble_create_init) refers to ns_ble.o(.bss) for .bss
    ns_ble.o(i.ns_ble_create_scan) refers to ns_ble.o(.bss) for .bss
    ns_ble.o(i.ns_ble_delete_init) refers to ns_ble.o(.bss) for .bss
    ns_ble.o(i.ns_ble_delete_scan) refers to ns_ble.o(.bss) for .bss
    ns_ble.o(i.ns_ble_disconnect) refers to ns_ble.o(.bss) for .bss
    ns_ble.o(i.ns_ble_dle_set) refers to ns_ble.o(.bss) for .bss
    ns_ble.o(i.ns_ble_ex_adv_data_set) refers to ns_ble.o(i.app_set_adv_data) for app_set_adv_data
    ns_ble.o(i.ns_ble_ex_adv_data_set) refers to ns_ble.o(.bss) for .bss
    ns_ble.o(i.ns_ble_gap_init) refers to memcpya.o(.text) for __aeabi_memcpy
    ns_ble.o(i.ns_ble_gap_init) refers to ns_ble.o(.bss) for .bss
    ns_ble.o(i.ns_ble_get_active_connection) refers to ns_ble.o(.bss) for .bss
    ns_ble.o(i.ns_ble_get_conidx_by_role) refers to ns_ble.o(.bss) for .bss
    ns_ble.o(i.ns_ble_get_connection_num) refers to ns_ble.o(.bss) for .bss
    ns_ble.o(i.ns_ble_get_connection_state) refers to ns_ble.o(.bss) for .bss
    ns_ble.o(i.ns_ble_get_peer_info) refers to ns_ble.o(.bss) for .bss
    ns_ble.o(i.ns_ble_list_set_ral) refers to memcpya.o(.text) for __aeabi_memcpy
    ns_ble.o(i.ns_ble_list_set_wl) refers to memcpya.o(.text) for __aeabi_memcpy
    ns_ble.o(i.ns_ble_master_connection_num) refers to ns_ble.o(.bss) for .bss
    ns_ble.o(i.ns_ble_mtu_set) refers to ns_ble.o(.bss) for .bss
    ns_ble.o(i.ns_ble_phy_set) refers to ns_ble.o(.bss) for .bss
    ns_ble.o(i.ns_ble_prf_task_register) refers to ns_ble.o(.bss) for .bss
    ns_ble.o(i.ns_ble_prod_test_cmd_send) refers to memcpya.o(.text) for __aeabi_memcpy
    ns_ble.o(i.ns_ble_prod_test_cmd_send) refers to rwip_driver.o(i.llhwc_modem_setmode) for llhwc_modem_setmode
    ns_ble.o(i.ns_ble_radio_calibration) refers to ffltui.o(.text) for __aeabi_ui2f
    ns_ble.o(i.ns_ble_radio_calibration) refers to fdiv.o(.text) for __aeabi_fdiv
    ns_ble.o(i.ns_ble_radio_calibration) refers to ffixui.o(.text) for __aeabi_f2uiz
    ns_ble.o(i.ns_ble_radio_calibration) refers to rwip_driver.o(i.radio_hse_mco_set) for radio_hse_mco_set
    ns_ble.o(i.ns_ble_radio_power_set) refers to rwip_driver.o(i.rf_tx_power_set) for rf_tx_power_set
    ns_ble.o(i.ns_ble_resolv_addr) refers to memcpya.o(.text) for __aeabi_memcpy
    ns_ble.o(i.ns_ble_scan_data_find) refers to memcmp.o(.text) for memcmp
    ns_ble.o(i.ns_ble_scan_init) refers to ns_ble.o(.bss) for .bss
    ns_ble.o(i.ns_ble_scan_rsp_data_set) refers to memcpya.o(.text) for __aeabi_memcpy
    ns_ble.o(i.ns_ble_scan_rsp_data_set) refers to ns_ble.o(i.app_set_scan_rsp_data) for app_set_scan_rsp_data
    ns_ble.o(i.ns_ble_scan_rsp_data_set) refers to ns_ble.o(.bss) for .bss
    ns_ble.o(i.ns_ble_set_active_connection) refers to ns_ble.o(.bss) for .bss
    ns_ble.o(i.ns_ble_set_slave_latency) refers to ns_ble.o(.bss) for .bss
    ns_ble.o(i.ns_ble_slave_connection_num) refers to ns_ble.o(.bss) for .bss
    ns_ble.o(i.ns_ble_stack_init) refers to memcpya.o(.text) for __aeabi_memcpy4
    ns_ble.o(i.ns_ble_stack_init) refers to n32wb03x_exti.o(i.EXTI_InitPeripheral) for EXTI_InitPeripheral
    ns_ble.o(i.ns_ble_stack_init) refers to memseta.o(.text) for __aeabi_memclr4
    ns_ble.o(i.ns_ble_stack_init) refers to n32wb03x_rcc.o(i.RCC_EnableAHBPeriphClk) for RCC_EnableAHBPeriphClk
    ns_ble.o(i.ns_ble_stack_init) refers to ns_ble.o(i.patchx_enable) for patchx_enable
    ns_ble.o(i.ns_ble_stack_init) refers to rwip.o(i.rwip_init) for rwip_init
    ns_ble.o(i.ns_ble_stack_init) refers to prf.o(i.prf_init) for prf_init
    ns_ble.o(i.ns_ble_stack_init) refers to startup_n32wb03x.o(RESET) for __Vectors
    ns_ble.o(i.ns_ble_stack_init) refers to ns_ble.o(i.ns_HardFault_Handler) for ns_HardFault_Handler
    ns_ble.o(i.ns_ble_stack_init) refers to ns_ble.o(.data) for .data
    ns_ble.o(i.ns_ble_stack_init) refers to rwip_driver.o(i.rwip_slp_isr) for rwip_slp_isr
    ns_ble.o(i.ns_ble_stack_init) refers to ns_ble.o(i.ns_EXTI4_12_IRQHandler) for ns_EXTI4_12_IRQHandler
    ns_ble.o(i.ns_ble_stack_init) refers to ns_ble.o(.bss) for .bss
    ns_ble.o(i.ns_ble_stack_init) refers to ns_ble.o(.constdata) for .constdata
    ns_ble.o(i.ns_ble_stack_init) refers to prf.o(i.prf_add_profile) for prf_add_profile
    ns_ble.o(i.ns_ble_stack_init) refers to prf.o(i.prf_get_task_from_id) for prf_get_task_from_id
    ns_ble.o(i.ns_ble_stack_init) refers to prf.o(i.prf_get_id_from_task) for prf_get_id_from_task
    ns_ble.o(i.ns_ble_stack_init) refers to ns_ble_task.o(.constdata) for TASK_DESC_APP_M
    ns_ble.o(i.ns_ble_start_init) refers to rwip_driver.o(i.llhwc_modem_setmode) for llhwc_modem_setmode
    ns_ble.o(i.ns_ble_start_init) refers to ns_ble.o(.bss) for .bss
    ns_ble.o(i.ns_ble_start_scan) refers to rwip_driver.o(i.llhwc_modem_setmode) for llhwc_modem_setmode
    ns_ble.o(i.ns_ble_start_scan) refers to ns_ble.o(.bss) for .bss
    ns_ble.o(i.ns_ble_stop_init) refers to ns_ble.o(.bss) for .bss
    ns_ble.o(i.ns_ble_stop_scan) refers to ns_ble.o(.bss) for .bss
    ns_ble.o(i.ns_ble_update_param) refers to printf8.o(i.__0printf$8) for __2printf
    ns_ble.o(i.ns_ble_update_param) refers to ns_ble.o(.bss) for .bss
    ns_ble.o(i.ns_iwdg_config) refers to ns_ble.o(.bss) for .bss
    ns_ble.o(i.ns_iwdg_reload) refers to ns_ble.o(.data) for .data
    ns_ble.o(i.ns_iwdg_reload) refers to ns_ble.o(.bss) for .bss
    ns_ble.o(i.ns_peripheral_config) refers to ns_ble.o(i.ns_ble_lsc_config) for ns_ble_lsc_config
    ns_ble.o(i.ns_peripheral_config) refers to printf8.o(i.__0printf$8) for __2printf
    ns_ble.o(i.ns_peripheral_config) refers to ns_sleep.o(i.ns_sleep_lock_acquire) for ns_sleep_lock_acquire
    ns_ble.o(i.ns_peripheral_config) refers to ns_ble.o(.bss) for .bss
    ns_ble.o(i.ns_peripheral_config) refers to ns_ble.o(.data) for .data
    ns_ble_task.o(i.app_conn_params_update_evt_handler) refers to ns_ble.o(i.ns_ble_update_param) for ns_ble_update_param
    ns_ble_task.o(i.app_conn_params_update_evt_handler) refers to ns_ble.o(.bss) for gap_env
    ns_ble_task.o(i.app_entry_point_handler) refers to ns_timer.o(i.ns_timer_api_process_handler) for ns_timer_api_process_handler
    ns_ble_task.o(i.app_entry_point_handler) refers to ns_ble.o(.bss) for ble_prf_evn
    ns_ble_task.o(i.app_entry_point_handler) refers to ns_sec.o(.constdata) for app_sec_handlers
    ns_ble_task.o(i.app_init_timeout_evt_handler) refers to ns_ble.o(i.ns_ble_stop_init) for ns_ble_stop_init
    ns_ble_task.o(i.app_init_timeout_evt_handler) refers to ns_ble.o(.bss) for scan_env
    ns_ble_task.o(i.app_lsi_calib_evt_handler) refers to ns_ble.o(i.ns_ble_lsc_config) for ns_ble_lsc_config
    ns_ble_task.o(i.app_lsi_calib_evt_handler) refers to ns_sleep.o(i.ns_sleep_lock_release) for ns_sleep_lock_release
    ns_ble_task.o(i.app_lsi_calib_evt_handler) refers to ns_ble_task.o(.data) for .data
    ns_ble_task.o(i.app_lsi_calib_evt_handler) refers to ns_ble.o(.bss) for app_env
    ns_ble_task.o(i.gapc_cmp_evt_handler) refers to ns_ble.o(.bss) for app_env
    ns_ble_task.o(i.gapc_conn_rssi_ind_handler) refers to ns_ble.o(.bss) for app_env
    ns_ble_task.o(i.gapc_connection_req_ind_handler) refers to printf8.o(i.__0printf$8) for __2printf
    ns_ble_task.o(i.gapc_connection_req_ind_handler) refers to ns_sec.o(i.ns_sec_get_bond_status) for ns_sec_get_bond_status
    ns_ble_task.o(i.gapc_connection_req_ind_handler) refers to ns_sec.o(i.ns_sec_get_iocap) for ns_sec_get_iocap
    ns_ble_task.o(i.gapc_connection_req_ind_handler) refers to ns_ble.o(i.ns_ble_adv_start) for ns_ble_adv_start
    ns_ble_task.o(i.gapc_connection_req_ind_handler) refers to ns_ble_task.o(.constdata) for .constdata
    ns_ble_task.o(i.gapc_connection_req_ind_handler) refers to ns_ble.o(.bss) for app_env
    ns_ble_task.o(i.gapc_disconnect_ind_handler) refers to printf8.o(i.__0printf$8) for __2printf
    ns_ble_task.o(i.gapc_disconnect_ind_handler) refers to ns_ble.o(i.ns_ble_get_connection_num) for ns_ble_get_connection_num
    ns_ble_task.o(i.gapc_disconnect_ind_handler) refers to memseta.o(.text) for __aeabi_memclr
    ns_ble_task.o(i.gapc_disconnect_ind_handler) refers to ns_ble.o(.bss) for app_env
    ns_ble_task.o(i.gapc_get_dev_info_req_ind_handler) refers to memcpya.o(.text) for __aeabi_memcpy
    ns_ble_task.o(i.gapc_get_dev_info_req_ind_handler) refers to ns_ble.o(.bss) for gap_env
    ns_ble_task.o(i.gapc_le_phy_ind_handler) refers to printf8.o(i.__0printf$8) for __2printf
    ns_ble_task.o(i.gapc_le_phy_ind_handler) refers to rwip_driver.o(i.llhwc_modem_setmode) for llhwc_modem_setmode
    ns_ble_task.o(i.gapc_le_pkt_size_ind_handler) refers to ns_ble.o(.bss) for app_env
    ns_ble_task.o(i.gapc_param_update_req_ind_handler) refers to ns_ble.o(i.ns_ble_adv_start) for ns_ble_adv_start
    ns_ble_task.o(i.gapc_param_update_req_ind_handler) refers to ns_ble.o(.bss) for app_env
    ns_ble_task.o(i.gapc_param_updated_ind_handler) refers to ns_ble.o(.bss) for app_env
    ns_ble_task.o(i.gapc_set_dev_info_req_ind_handler) refers to memcpya.o(.text) for __aeabi_memcpy
    ns_ble_task.o(i.gapc_set_dev_info_req_ind_handler) refers to ns_ble.o(.bss) for gap_env
    ns_ble_task.o(i.gapm_activity_created_ind_handler) refers to ns_ble.o(.bss) for app_env
    ns_ble_task.o(i.gapm_activity_stopped_ind_handler) refers to ns_ble.o(i.ns_ble_adv_fsm_next) for ns_ble_adv_fsm_next
    ns_ble_task.o(i.gapm_activity_stopped_ind_handler) refers to ns_ble.o(i.ns_ble_delete_scan) for ns_ble_delete_scan
    ns_ble_task.o(i.gapm_activity_stopped_ind_handler) refers to ns_ble.o(i.ns_ble_delete_init) for ns_ble_delete_init
    ns_ble_task.o(i.gapm_activity_stopped_ind_handler) refers to ns_ble.o(.bss) for app_env
    ns_ble_task.o(i.gapm_addr_solved_ind_handler) refers to memcpya.o(.text) for __aeabi_memcpy
    ns_ble_task.o(i.gapm_addr_solved_ind_handler) refers to ns_sec.o(i.ns_bond_search_addr_irk) for ns_bond_search_addr_irk
    ns_ble_task.o(i.gapm_addr_solved_ind_handler) refers to ns_ble.o(.bss) for app_env
    ns_ble_task.o(i.gapm_cmp_evt_handler) refers to printf8.o(i.__0printf$8) for __2printf
    ns_ble_task.o(i.gapm_cmp_evt_handler) refers to prf.o(i.prf_init) for prf_init
    ns_ble_task.o(i.gapm_cmp_evt_handler) refers to ns_ble.o(i.ns_peripheral_config) for ns_peripheral_config
    ns_ble_task.o(i.gapm_cmp_evt_handler) refers to memseta.o(.text) for __aeabi_memclr
    ns_ble_task.o(i.gapm_cmp_evt_handler) refers to rwip_driver.o(i.llhwc_modem_setmode) for llhwc_modem_setmode
    ns_ble_task.o(i.gapm_cmp_evt_handler) refers to memcpya.o(.text) for __aeabi_memcpy
    ns_ble_task.o(i.gapm_cmp_evt_handler) refers to ns_sec.o(i.ns_sec_get_bond_status) for ns_sec_get_bond_status
    ns_ble_task.o(i.gapm_cmp_evt_handler) refers to ns_sec.o(i.ns_bond_last_bonded_ral_info) for ns_bond_last_bonded_ral_info
    ns_ble_task.o(i.gapm_cmp_evt_handler) refers to ns_sec.o(i.ns_bond_last_bonded_addr) for ns_bond_last_bonded_addr
    ns_ble_task.o(i.gapm_cmp_evt_handler) refers to ns_ble.o(i.ns_ble_list_set_ral) for ns_ble_list_set_ral
    ns_ble_task.o(i.gapm_cmp_evt_handler) refers to ns_ble.o(i.ns_ble_add_svc) for ns_ble_add_svc
    ns_ble_task.o(i.gapm_cmp_evt_handler) refers to ns_ble.o(i.ns_ble_adv_stop) for ns_ble_adv_stop
    ns_ble_task.o(i.gapm_cmp_evt_handler) refers to ns_ble.o(i.ns_ble_start_scan) for ns_ble_start_scan
    ns_ble_task.o(i.gapm_cmp_evt_handler) refers to ns_ble.o(i.ns_ble_adv_start) for ns_ble_adv_start
    ns_ble_task.o(i.gapm_cmp_evt_handler) refers to ns_sec.o(i.ns_bond_resolv_addr_start) for ns_bond_resolv_addr_start
    ns_ble_task.o(i.gapm_cmp_evt_handler) refers to ns_ble.o(i.ns_ble_adv_fsm_next) for ns_ble_adv_fsm_next
    ns_ble_task.o(i.gapm_cmp_evt_handler) refers to ns_ble.o(i.ns_ble_delete_scan) for ns_ble_delete_scan
    ns_ble_task.o(i.gapm_cmp_evt_handler) refers to ns_ble.o(i.ns_ble_delete_init) for ns_ble_delete_init
    ns_ble_task.o(i.gapm_cmp_evt_handler) refers to ns_ble.o(i.ns_ble_start_init) for ns_ble_start_init
    ns_ble_task.o(i.gapm_cmp_evt_handler) refers to ns_ble_task.o(.constdata) for .constdata
    ns_ble_task.o(i.gapm_cmp_evt_handler) refers to ns_ble.o(.bss) for app_env
    ns_ble_task.o(i.gapm_ext_adv_repoer_ind_handler) refers to memcmp.o(.text) for memcmp
    ns_ble_task.o(i.gapm_ext_adv_repoer_ind_handler) refers to ns_ble.o(i.ns_ble_scan_data_find) for ns_ble_scan_data_find
    ns_ble_task.o(i.gapm_ext_adv_repoer_ind_handler) refers to ns_ble.o(i.ns_ble_stop_scan) for ns_ble_stop_scan
    ns_ble_task.o(i.gapm_ext_adv_repoer_ind_handler) refers to ns_ble.o(i.ns_ble_start_init) for ns_ble_start_init
    ns_ble_task.o(i.gapm_ext_adv_repoer_ind_handler) refers to ns_ble.o(.bss) for scan_env
    ns_ble_task.o(i.gapm_gen_rand_nb_ind_handler) refers to rand.o(.text) for srand
    ns_ble_task.o(i.gattc_cmp_evt_handler) refers to ns_ble.o(.bss) for app_env
    ns_ble_task.o(i.gattc_mtu_changed_ind_handler) refers to ns_ble.o(.bss) for app_env
    ns_ble_task.o(.constdata) refers to ns_ble_task.o(i.app_entry_point_handler) for app_entry_point_handler
    ns_ble_task.o(.constdata) refers to ns_ble_task.o(i.gapm_activity_created_ind_handler) for gapm_activity_created_ind_handler
    ns_ble_task.o(.constdata) refers to ns_ble_task.o(i.gapm_activity_stopped_ind_handler) for gapm_activity_stopped_ind_handler
    ns_ble_task.o(.constdata) refers to ns_ble_task.o(i.gapm_gen_rand_nb_ind_handler) for gapm_gen_rand_nb_ind_handler
    ns_ble_task.o(.constdata) refers to ns_ble_task.o(i.gapm_addr_solved_ind_handler) for gapm_addr_solved_ind_handler
    ns_ble_task.o(.constdata) refers to ns_ble_task.o(i.gapm_cmp_evt_handler) for gapm_cmp_evt_handler
    ns_ble_task.o(.constdata) refers to ns_ble_task.o(i.gapm_profile_added_ind_handler) for gapm_profile_added_ind_handler
    ns_ble_task.o(.constdata) refers to ns_ble_task.o(i.gapm_ext_adv_repoer_ind_handler) for gapm_ext_adv_repoer_ind_handler
    ns_ble_task.o(.constdata) refers to ns_ble_task.o(i.gapm_scan_request_ind_handler) for gapm_scan_request_ind_handler
    ns_ble_task.o(.constdata) refers to ns_ble_task.o(i.gattc_mtu_changed_ind_handler) for gattc_mtu_changed_ind_handler
    ns_ble_task.o(.constdata) refers to ns_ble_task.o(i.gattc_cmp_evt_handler) for gattc_cmp_evt_handler
    ns_ble_task.o(.constdata) refers to ns_ble_task.o(i.gapc_connection_req_ind_handler) for gapc_connection_req_ind_handler
    ns_ble_task.o(.constdata) refers to ns_ble_task.o(i.gapc_param_update_req_ind_handler) for gapc_param_update_req_ind_handler
    ns_ble_task.o(.constdata) refers to ns_ble_task.o(i.gapc_param_updated_ind_handler) for gapc_param_updated_ind_handler
    ns_ble_task.o(.constdata) refers to ns_ble_task.o(i.gapc_le_pkt_size_ind_handler) for gapc_le_pkt_size_ind_handler
    ns_ble_task.o(.constdata) refers to ns_ble_task.o(i.gapc_disconnect_ind_handler) for gapc_disconnect_ind_handler
    ns_ble_task.o(.constdata) refers to ns_ble_task.o(i.gapc_get_dev_info_req_ind_handler) for gapc_get_dev_info_req_ind_handler
    ns_ble_task.o(.constdata) refers to ns_ble_task.o(i.gapc_le_phy_ind_handler) for gapc_le_phy_ind_handler
    ns_ble_task.o(.constdata) refers to ns_ble_task.o(i.gapc_set_dev_info_req_ind_handler) for gapc_set_dev_info_req_ind_handler
    ns_ble_task.o(.constdata) refers to ns_ble_task.o(i.gapc_cmp_evt_handler) for gapc_cmp_evt_handler
    ns_ble_task.o(.constdata) refers to ns_ble_task.o(i.gapc_conn_rssi_ind_handler) for gapc_conn_rssi_ind_handler
    ns_ble_task.o(.constdata) refers to ns_ble_task.o(i.app_lsi_calib_evt_handler) for app_lsi_calib_evt_handler
    ns_ble_task.o(.constdata) refers to ns_ble_task.o(i.app_conn_params_update_evt_handler) for app_conn_params_update_evt_handler
    ns_ble_task.o(.constdata) refers to ns_ble_task.o(i.app_init_timeout_evt_handler) for app_init_timeout_evt_handler
    ns_ble_task.o(.constdata) refers to ns_sec.o(i.ns_sec_bond_store_evt_handler) for ns_sec_bond_store_evt_handler
    ns_ble_task.o(.constdata) refers to ns_ble_task.o(.constdata) for app_msg_handler_tab
    ns_ble_task.o(.constdata) refers to ns_ble_task.o(.data) for app_state
    app_dis.o(i.app_dis_add_dis) refers to ns_ble.o(i.ns_ble_prf_task_register) for ns_ble_prf_task_register
    app_dis.o(i.app_dis_add_dis) refers to prf.o(i.prf_get_itf_func_register) for prf_get_itf_func_register
    app_dis.o(i.app_dis_add_dis) refers to app_dis.o(.constdata) for .constdata
    app_dis.o(i.app_dis_add_dis) refers to diss.o(i.diss_prf_itf_get) for diss_prf_itf_get
    app_dis.o(i.app_dis_init) refers to ns_ble.o(i.ns_ble_prf_task_register) for ns_ble_prf_task_register
    app_dis.o(i.app_dis_init) refers to prf.o(i.prf_get_itf_func_register) for prf_get_itf_func_register
    app_dis.o(i.app_dis_init) refers to app_dis.o(.constdata) for .constdata
    app_dis.o(i.app_dis_init) refers to diss.o(i.diss_prf_itf_get) for diss_prf_itf_get
    app_dis.o(i.diss_value_req_ind_handler) refers to memcpya.o(.text) for __aeabi_memcpy
    app_dis.o(.constdata) refers to app_dis.o(i.diss_value_req_ind_handler) for diss_value_req_ind_handler
    app_dis.o(.constdata) refers to app_dis.o(.constdata) for app_dis_msg_handler_list
    app_rdtss.o(i.app_rdtss_add_rdts) refers to ns_ble.o(i.ns_ble_prf_task_register) for ns_ble_prf_task_register
    app_rdtss.o(i.app_rdtss_add_rdts) refers to prf.o(i.prf_get_itf_func_register) for prf_get_itf_func_register
    app_rdtss.o(i.app_rdtss_add_rdts) refers to app_rdtss.o(.constdata) for .constdata
    app_rdtss.o(i.app_rdtss_add_rdts) refers to rdtss.o(i.rdtss_prf_itf_get) for rdtss_prf_itf_get
    app_rdtss.o(i.app_rdtss_init) refers to ns_ble.o(i.ns_ble_prf_task_register) for ns_ble_prf_task_register
    app_rdtss.o(i.app_rdtss_init) refers to prf.o(i.prf_get_itf_func_register) for prf_get_itf_func_register
    app_rdtss.o(i.app_rdtss_init) refers to app_rdtss.o(.constdata) for .constdata
    app_rdtss.o(i.app_rdtss_init) refers to rdtss.o(i.rdtss_prf_itf_get) for rdtss_prf_itf_get
    app_rdtss.o(i.rdtss_send_notify) refers to prf.o(i.prf_get_task_from_id) for prf_get_task_from_id
    app_rdtss.o(i.rdtss_send_notify) refers to memcpya.o(.text) for __aeabi_memcpy
    app_rdtss.o(i.rdtss_send_notify) refers to printf8.o(i.__0printf$8) for __2printf
    app_rdtss.o(i.rdtss_send_notify) refers to app_rdtss.o(.data) for .data
    app_rdtss.o(i.rdtss_send_notify) refers to ns_ble.o(.bss) for app_env
    app_rdtss.o(i.rdtss_send_notify) refers to bsp_usart.o(.data) for ble_sending
    app_rdtss.o(i.rdtss_val_write_ind_handler) refers to bsp_frame.o(i.app_recv_data_fifo_enter) for app_recv_data_fifo_enter
    app_rdtss.o(i.rdtss_val_write_ind_handler) refers to app_rdtss.o(.data) for .data
    app_rdtss.o(i.rdtss_value_req_ind_handler) refers to memcpya.o(.text) for __aeabi_memcpy
    app_rdtss.o(.constdata) refers to app_rdtss.o(.constdata) for app_rdtss_msg_handler_list
    app_rdtss.o(.constdata) refers to app_rdtss.o(i.rdtss_value_req_ind_handler) for rdtss_value_req_ind_handler
    app_rdtss.o(.constdata) refers to app_rdtss.o(i.rdtss_val_write_ind_handler) for rdtss_val_write_ind_handler
    app_rdtss.o(.constdata) refers to app_rdtss.o(i.rdtss_val_ntf_cfm_handler) for rdtss_val_ntf_cfm_handler
    app_ble.o(i.app_ble_adv_init) refers to memseta.o(.text) for __aeabi_memclr4
    app_ble.o(i.app_ble_adv_init) refers to memcpya.o(.text) for __aeabi_memcpy4
    app_ble.o(i.app_ble_adv_init) refers to ns_ble.o(i.ns_ble_adv_init) for ns_ble_adv_init
    app_ble.o(i.app_ble_adv_init) refers to app_ble.o(i.app_ble_adv_msg_handler) for app_ble_adv_msg_handler
    app_ble.o(i.app_ble_connected) refers to bsp_led.o(i.LedOn) for LedOn
    app_ble.o(i.app_ble_connected) refers to app_rdtss.o(.data) for notify_en
    app_ble.o(i.app_ble_disconnected) refers to ns_ble.o(i.ns_ble_adv_start) for ns_ble_adv_start
    app_ble.o(i.app_ble_disconnected) refers to bsp_led.o(i.LedOff) for LedOff
    app_ble.o(i.app_ble_disconnected) refers to app_rdtss.o(.data) for notify_en
    app_ble.o(i.app_ble_gap_params_init) refers to system_n32wb03x.o(i.SystemGetMacAddr) for SystemGetMacAddr
    app_ble.o(i.app_ble_gap_params_init) refers to memcpya.o(.text) for __aeabi_memcpy
    app_ble.o(i.app_ble_gap_params_init) refers to ns_ble.o(i.ns_ble_gap_init) for ns_ble_gap_init
    app_ble.o(i.app_ble_init) refers to ns_ble.o(i.ns_ble_stack_init) for ns_ble_stack_init
    app_ble.o(i.app_ble_init) refers to app_ble.o(i.app_ble_gap_params_init) for app_ble_gap_params_init
    app_ble.o(i.app_ble_init) refers to app_ble.o(i.app_ble_sec_init) for app_ble_sec_init
    app_ble.o(i.app_ble_init) refers to app_ble.o(i.app_ble_adv_init) for app_ble_adv_init
    app_ble.o(i.app_ble_init) refers to ns_ble.o(i.ns_ble_add_prf_func_register) for ns_ble_add_prf_func_register
    app_ble.o(i.app_ble_init) refers to ns_ble.o(i.ns_ble_adv_start) for ns_ble_adv_start
    app_ble.o(i.app_ble_init) refers to app_ble.o(i.app_ble_msg_handler) for app_ble_msg_handler
    app_ble.o(i.app_ble_init) refers to app_ble.o(i.app_user_msg_handler) for app_user_msg_handler
    app_ble.o(i.app_ble_init) refers to app_dis.o(i.app_dis_add_dis) for app_dis_add_dis
    app_ble.o(i.app_ble_init) refers to app_rdtss.o(i.app_rdtss_add_rdts) for app_rdtss_add_rdts
    app_ble.o(i.app_ble_msg_handler) refers to ns_ble.o(i.ns_ble_adv_start) for ns_ble_adv_start
    app_ble.o(i.app_ble_msg_handler) refers to bsp_led.o(i.LedOff) for LedOff
    app_ble.o(i.app_ble_msg_handler) refers to printf8.o(i.__0printf$8) for __2printf
    app_ble.o(i.app_ble_msg_handler) refers to bsp_led.o(i.LedOn) for LedOn
    app_ble.o(i.app_ble_msg_handler) refers to app_rdtss.o(.data) for notify_en
    app_ble.o(i.app_ble_prf_init) refers to ns_ble.o(i.ns_ble_add_prf_func_register) for ns_ble_add_prf_func_register
    app_ble.o(i.app_ble_prf_init) refers to app_dis.o(i.app_dis_add_dis) for app_dis_add_dis
    app_ble.o(i.app_ble_prf_init) refers to app_rdtss.o(i.app_rdtss_add_rdts) for app_rdtss_add_rdts
    app_ble.o(i.app_ble_sec_init) refers to ns_sec.o(i.ns_sec_init) for ns_sec_init
    app_ble.o(i.app_user_msg_handler) refers to bsp_usart.o(i.app_usart_tx_process) for app_usart_tx_process
    main.o(i.main) refers to ns_log_lpuart.o(i.ns_log_lpuart_init) for ns_log_lpuart_init
    main.o(i.main) refers to app_ble.o(i.app_ble_init) for app_ble_init
    main.o(i.main) refers to bsp_init.o(i.bsp_init) for bsp_init
    main.o(i.main) refers to printf8.o(i.__0printf$8) for __2printf
    main.o(i.main) refers to bsp_frame.o(i.ble_rx_msg) for ble_rx_msg
    main.o(i.main) refers to bsp_timer.o(i.timer_run) for timer_run
    bsp_usart.o(i.DMA_Channel1_2_3_4_IRQHandler) refers to n32wb03x_dma.o(i.DMA_GetFlagStatus) for DMA_GetFlagStatus
    bsp_usart.o(i.DMA_Channel1_2_3_4_IRQHandler) refers to n32wb03x_dma.o(i.DMA_ClearFlag) for DMA_ClearFlag
    bsp_usart.o(i.DMA_Channel1_2_3_4_IRQHandler) refers to bsp_usart.o(i.usart_rx_check_in_irq) for usart_rx_check_in_irq
    bsp_usart.o(i.DMA_Channel1_2_3_4_IRQHandler) refers to bsp_usart.o(.data) for .data
    bsp_usart.o(i.DMA_Configuration) refers to n32wb03x_dma.o(i.DMA_DeInit) for DMA_DeInit
    bsp_usart.o(i.DMA_Configuration) refers to n32wb03x_dma.o(i.DMA_RequestRemap) for DMA_RequestRemap
    bsp_usart.o(i.DMA_Configuration) refers to n32wb03x_dma.o(i.DMA_ConfigInt) for DMA_ConfigInt
    bsp_usart.o(i.DMA_Configuration) refers to n32wb03x_dma.o(i.DMA_Init) for DMA_Init
    bsp_usart.o(i.DMA_Configuration) refers to bsp_usart.o(.bss) for .bss
    bsp_usart.o(i.GPIO_Configuration_USART) refers to n32wb03x_gpio.o(i.GPIO_InitStruct) for GPIO_InitStruct
    bsp_usart.o(i.GPIO_Configuration_USART) refers to n32wb03x_gpio.o(i.GPIO_InitPeripheral) for GPIO_InitPeripheral
    bsp_usart.o(i.NVIC_Configuration) refers to misc.o(i.NVIC_Init) for NVIC_Init
    bsp_usart.o(i.RCC_Configuration_USART) refers to n32wb03x_rcc.o(i.RCC_EnableAPB2PeriphClk) for RCC_EnableAPB2PeriphClk
    bsp_usart.o(i.RCC_Configuration_USART) refers to n32wb03x_rcc.o(i.RCC_EnableAHBPeriphClk) for RCC_EnableAHBPeriphClk
    bsp_usart.o(i.USART1_IRQHandler) refers to n32wb03x_usart.o(i.USART_GetFlagStatus) for USART_GetFlagStatus
    bsp_usart.o(i.USART1_IRQHandler) refers to bsp_usart.o(i.usart_rx_check_in_irq) for usart_rx_check_in_irq
    bsp_usart.o(i.app_usart_configuration) refers to n32wb03x_rcc.o(i.RCC_EnableAPB2PeriphClk) for RCC_EnableAPB2PeriphClk
    bsp_usart.o(i.app_usart_configuration) refers to n32wb03x_rcc.o(i.RCC_EnableAHBPeriphClk) for RCC_EnableAHBPeriphClk
    bsp_usart.o(i.app_usart_configuration) refers to n32wb03x_gpio.o(i.GPIO_InitStruct) for GPIO_InitStruct
    bsp_usart.o(i.app_usart_configuration) refers to n32wb03x_gpio.o(i.GPIO_InitPeripheral) for GPIO_InitPeripheral
    bsp_usart.o(i.app_usart_configuration) refers to bsp_usart.o(i.DMA_Configuration) for DMA_Configuration
    bsp_usart.o(i.app_usart_configuration) refers to misc.o(i.NVIC_Init) for NVIC_Init
    bsp_usart.o(i.app_usart_configuration) refers to n32wb03x_usart.o(i.USART_Init) for USART_Init
    bsp_usart.o(i.app_usart_configuration) refers to n32wb03x_usart.o(i.USART_ConfigInt) for USART_ConfigInt
    bsp_usart.o(i.app_usart_configuration) refers to n32wb03x_usart.o(i.USART_EnableDMA) for USART_EnableDMA
    bsp_usart.o(i.app_usart_configuration) refers to n32wb03x_dma.o(i.DMA_EnableChannel) for DMA_EnableChannel
    bsp_usart.o(i.app_usart_configuration) refers to n32wb03x_usart.o(i.USART_Enable) for USART_Enable
    bsp_usart.o(i.app_usart_dma_enable) refers to ns_sleep.o(i.ns_sleep_lock_release) for ns_sleep_lock_release
    bsp_usart.o(i.app_usart_dma_enable) refers to n32wb03x_usart.o(i.USART_Enable) for USART_Enable
    bsp_usart.o(i.app_usart_dma_enable) refers to n32wb03x_dma.o(i.DMA_EnableChannel) for DMA_EnableChannel
    bsp_usart.o(i.app_usart_dma_enable) refers to n32wb03x_gpio.o(i.GPIO_InitStruct) for GPIO_InitStruct
    bsp_usart.o(i.app_usart_dma_enable) refers to n32wb03x_gpio.o(i.GPIO_InitPeripheral) for GPIO_InitPeripheral
    bsp_usart.o(i.app_usart_dma_enable) refers to ns_sleep.o(i.ns_sleep_lock_acquire) for ns_sleep_lock_acquire
    bsp_usart.o(i.app_usart_dma_enable) refers to bsp_usart.o(i.app_usart_configuration) for app_usart_configuration
    bsp_usart.o(i.app_usart_dma_enable) refers to bsp_usart.o(.data) for .data
    bsp_usart.o(i.app_usart_rx_data_fifo_enter) refers to memcpya.o(.text) for __aeabi_memcpy
    bsp_usart.o(i.app_usart_rx_data_fifo_enter) refers to uidiv.o(.text) for __aeabi_uidivmod
    bsp_usart.o(i.app_usart_rx_data_fifo_enter) refers to printf8.o(i.__0printf$8) for __2printf
    bsp_usart.o(i.app_usart_rx_data_fifo_enter) refers to bsp_usart.o(.data) for .data
    bsp_usart.o(i.app_usart_rx_data_fifo_enter) refers to bsp_usart.o(.bss) for .bss
    bsp_usart.o(i.app_usart_tx_fifo_enter) refers to memcpya.o(.text) for __aeabi_memcpy
    bsp_usart.o(i.app_usart_tx_fifo_enter) refers to uidiv.o(.text) for __aeabi_uidivmod
    bsp_usart.o(i.app_usart_tx_fifo_enter) refers to printf8.o(i.__0printf$8) for __2printf
    bsp_usart.o(i.app_usart_tx_fifo_enter) refers to bsp_usart.o(.data) for .data
    bsp_usart.o(i.app_usart_tx_fifo_enter) refers to bsp_usart.o(.bss) for .bss
    bsp_usart.o(i.app_usart_tx_process) refers to bsp_usart.o(i.usart_tx_dma_send) for usart_tx_dma_send
    bsp_usart.o(i.app_usart_tx_process) refers to bsp_usart.o(.data) for .data
    bsp_usart.o(i.app_usart_tx_process) refers to bsp_usart.o(.bss) for .bss
    bsp_usart.o(i.usart_forward_to_ble_loop) refers to memseta.o(.text) for __aeabi_memclr4
    bsp_usart.o(i.usart_forward_to_ble_loop) refers to memcpya.o(.text) for __aeabi_memcpy
    bsp_usart.o(i.usart_forward_to_ble_loop) refers to app_rdtss.o(i.rdtss_send_notify) for rdtss_send_notify
    bsp_usart.o(i.usart_forward_to_ble_loop) refers to idiv.o(.text) for __aeabi_idivmod
    bsp_usart.o(i.usart_forward_to_ble_loop) refers to uidiv.o(.text) for __aeabi_uidivmod
    bsp_usart.o(i.usart_forward_to_ble_loop) refers to bsp_usart.o(.data) for .data
    bsp_usart.o(i.usart_forward_to_ble_loop) refers to ns_ble.o(.bss) for app_env
    bsp_usart.o(i.usart_forward_to_ble_loop) refers to bsp_usart.o(.bss) for .bss
    bsp_usart.o(i.usart_rx_check_in_irq) refers to n32wb03x_dma.o(i.DMA_GetCurrDataCounter) for DMA_GetCurrDataCounter
    bsp_usart.o(i.usart_rx_check_in_irq) refers to bsp_usart.o(i.app_usart_rx_data_fifo_enter) for app_usart_rx_data_fifo_enter
    bsp_usart.o(i.usart_rx_check_in_irq) refers to bsp_usart.o(.data) for .data
    bsp_usart.o(i.usart_rx_check_in_irq) refers to bsp_usart.o(.bss) for .bss
    bsp_usart.o(i.usart_tx_data_blocking) refers to n32wb03x_usart.o(i.USART_SendData) for USART_SendData
    bsp_usart.o(i.usart_tx_dma_send) refers to n32wb03x_dma.o(i.DMA_Init) for DMA_Init
    bsp_usart.o(i.usart_tx_dma_send) refers to n32wb03x_dma.o(i.DMA_EnableChannel) for DMA_EnableChannel
    bsp_usart.o(i.usart_tx_dma_send) refers to bsp_usart.o(.data) for .data
    bsp_buzzer.o(i.BuzzerInit) refers to n32wb03x_rcc.o(i.RCC_EnableAPB2PeriphClk) for RCC_EnableAPB2PeriphClk
    bsp_buzzer.o(i.BuzzerInit) refers to n32wb03x_gpio.o(i.GPIO_ResetBits) for GPIO_ResetBits
    bsp_buzzer.o(i.BuzzerInit) refers to n32wb03x_gpio.o(i.GPIO_InitStruct) for GPIO_InitStruct
    bsp_buzzer.o(i.BuzzerInit) refers to n32wb03x_gpio.o(i.GPIO_InitPeripheral) for GPIO_InitPeripheral
    bsp_buzzer.o(i.BuzzerOff) refers to n32wb03x_gpio.o(i.GPIO_ResetBits) for GPIO_ResetBits
    bsp_buzzer.o(i.BuzzerOn) refers to n32wb03x_gpio.o(i.GPIO_SetBits) for GPIO_SetBits
    bsp_key.o(i.Delay_ms) refers to bsp_key.o(.data) for .data
    bsp_key.o(i.KeyInit) refers to n32wb03x_rcc.o(i.RCC_EnableAPB1PeriphClk) for RCC_EnableAPB1PeriphClk
    bsp_key.o(i.KeyInit) refers to misc.o(i.NVIC_Init) for NVIC_Init
    bsp_key.o(i.KeyInit) refers to n32wb03x_gpio.o(i.GPIO_InitStruct) for GPIO_InitStruct
    bsp_key.o(i.KeyInit) refers to n32wb03x_gpio.o(i.GPIO_InitPeripheral) for GPIO_InitPeripheral
    bsp_key.o(i.KeyInit) refers to n32wb03x_tim.o(i.TIM_InitTimeBase) for TIM_InitTimeBase
    bsp_key.o(i.KeyInit) refers to n32wb03x_tim.o(i.TIM_ConfigPrescaler) for TIM_ConfigPrescaler
    bsp_key.o(i.KeyInit) refers to n32wb03x_tim.o(i.TIM_ConfigInt) for TIM_ConfigInt
    bsp_key.o(i.KeyInit) refers to n32wb03x_tim.o(i.TIM_Enable) for TIM_Enable
    bsp_led.o(i.LedBlink) refers to n32wb03x_gpio.o(i.GPIO_TogglePin) for GPIO_TogglePin
    bsp_led.o(i.LedInitSingle) refers to n32wb03x_rcc.o(i.RCC_EnableAPB2PeriphClk) for RCC_EnableAPB2PeriphClk
    bsp_led.o(i.LedInitSingle) refers to n32wb03x_gpio.o(i.GPIO_SetBits) for GPIO_SetBits
    bsp_led.o(i.LedInitSingle) refers to n32wb03x_gpio.o(i.GPIO_InitStruct) for GPIO_InitStruct
    bsp_led.o(i.LedInitSingle) refers to n32wb03x_gpio.o(i.GPIO_InitPeripheral) for GPIO_InitPeripheral
    bsp_led.o(i.LedOff) refers to n32wb03x_gpio.o(i.GPIO_SetBits) for GPIO_SetBits
    bsp_led.o(i.LedOn) refers to n32wb03x_gpio.o(i.GPIO_ResetBits) for GPIO_ResetBits
    bsp_led.o(i.Led_Init) refers to bsp_led.o(i.LedInitSingle) for LedInitSingle
    bsp_relay.o(i.RelayInit) refers to n32wb03x_rcc.o(i.RCC_EnableAPB2PeriphClk) for RCC_EnableAPB2PeriphClk
    bsp_relay.o(i.RelayInit) refers to n32wb03x_gpio.o(i.GPIO_ResetBits) for GPIO_ResetBits
    bsp_relay.o(i.RelayInit) refers to n32wb03x_gpio.o(i.GPIO_InitStruct) for GPIO_InitStruct
    bsp_relay.o(i.RelayInit) refers to n32wb03x_gpio.o(i.GPIO_InitPeripheral) for GPIO_InitPeripheral
    bsp_relay.o(i.RelayOff) refers to n32wb03x_gpio.o(i.GPIO_ResetBits) for GPIO_ResetBits
    bsp_relay.o(i.RelayOn) refers to n32wb03x_gpio.o(i.GPIO_SetBits) for GPIO_SetBits
    bsp_tm1650.o(i.TM1650_DisplayInt) refers to uidiv.o(.text) for __aeabi_uidivmod
    bsp_tm1650.o(i.TM1650_DisplayInt) refers to bsp_tm1650.o(i.TM1650_WriteData) for TM1650_WriteData
    bsp_tm1650.o(i.TM1650_DisplayInt) refers to bsp_tm1650.o(.constdata) for .constdata
    bsp_tm1650.o(i.TM1650_DisplayTime) refers to uidiv.o(.text) for __aeabi_uidivmod
    bsp_tm1650.o(i.TM1650_DisplayTime) refers to bsp_tm1650.o(i.TM1650_WriteData) for TM1650_WriteData
    bsp_tm1650.o(i.TM1650_DisplayTime) refers to bsp_tm1650.o(.constdata) for .constdata
    bsp_tm1650.o(i.TM1650_Init) refers to n32wb03x_rcc.o(i.RCC_EnableAPB2PeriphClk) for RCC_EnableAPB2PeriphClk
    bsp_tm1650.o(i.TM1650_Init) refers to n32wb03x_gpio.o(i.GPIO_InitStruct) for GPIO_InitStruct
    bsp_tm1650.o(i.TM1650_Init) refers to n32wb03x_gpio.o(i.GPIO_InitPeripheral) for GPIO_InitPeripheral
    bsp_tm1650.o(i.TM1650_Init) refers to n32wb03x_gpio.o(i.GPIO_SetBits) for GPIO_SetBits
    bsp_tm1650.o(i.TM1650_Init) refers to bsp_tm1650.o(i.TM1650_SetDisplay) for TM1650_SetDisplay
    bsp_tm1650.o(i.TM1650_SetDisplay) refers to n32wb03x_gpio.o(i.GPIO_SetBits) for GPIO_SetBits
    bsp_tm1650.o(i.TM1650_SetDisplay) refers to n32wb03x_gpio.o(i.GPIO_ResetBits) for GPIO_ResetBits
    bsp_tm1650.o(i.TM1650_SetDisplay) refers to bsp_tm1650.o(i.TM1650_WriteByte) for TM1650_WriteByte
    bsp_tm1650.o(i.TM1650_WriteByte) refers to n32wb03x_gpio.o(i.GPIO_ResetBits) for GPIO_ResetBits
    bsp_tm1650.o(i.TM1650_WriteByte) refers to n32wb03x_gpio.o(i.GPIO_SetBits) for GPIO_SetBits
    bsp_tm1650.o(i.TM1650_WriteData) refers to n32wb03x_gpio.o(i.GPIO_SetBits) for GPIO_SetBits
    bsp_tm1650.o(i.TM1650_WriteData) refers to n32wb03x_gpio.o(i.GPIO_ResetBits) for GPIO_ResetBits
    bsp_tm1650.o(i.TM1650_WriteData) refers to bsp_tm1650.o(i.TM1650_WriteByte) for TM1650_WriteByte
    bsp_init.o(i.bsp_init) refers to n32wb03x_rcc.o(i.RCC_EnableAHBPeriphClk) for RCC_EnableAHBPeriphClk
    bsp_init.o(i.bsp_init) refers to bsp_tm1650.o(i.TM1650_Init) for TM1650_Init
    bsp_init.o(i.bsp_init) refers to bsp_led.o(i.Led_Init) for Led_Init
    bsp_init.o(i.bsp_init) refers to bsp_buzzer.o(i.BuzzerInit) for BuzzerInit
    bsp_init.o(i.bsp_init) refers to bsp_relay.o(i.RelayInit) for RelayInit
    bsp_init.o(i.bsp_init) refers to bsp_timer.o(i.timer_init) for timer_init
    bsp_frame.o(i.app_recv_data_fifo_enter) refers to bsp_frame.o(.bss) for .bss
    bsp_frame.o(i.app_recv_data_fifo_enter) refers to bsp_frame.o(.data) for .data
    bsp_frame.o(i.ble_rx_msg) refers to bsp_buzzer.o(i.BuzzerOn) for BuzzerOn
    bsp_frame.o(i.ble_rx_msg) refers to bsp_frame.o(i.resolve_frame) for resolve_frame
    bsp_frame.o(i.ble_rx_msg) refers to bsp_relay.o(i.RelayOn) for RelayOn
    bsp_frame.o(i.ble_rx_msg) refers to bsp_frame.o(i.bsp_create_frame) for bsp_create_frame
    bsp_frame.o(i.ble_rx_msg) refers to app_rdtss.o(i.rdtss_send_notify) for rdtss_send_notify
    bsp_frame.o(i.ble_rx_msg) refers to malloc.o(i.free) for free
    bsp_frame.o(i.ble_rx_msg) refers to bsp_buzzer.o(i.BuzzerOff) for BuzzerOff
    bsp_frame.o(i.ble_rx_msg) refers to printf8.o(i.__0printf$8) for __2printf
    bsp_frame.o(i.ble_rx_msg) refers to bsp_frame.o(.data) for .data
    bsp_frame.o(i.ble_rx_msg) refers to bsp_frame.o(.bss) for .bss
    bsp_frame.o(i.ble_rx_msg) refers to bsp_timer.o(.data) for time_sec
    bsp_frame.o(i.bsp_create_frame) refers to n32wb03x_crc.o(i.CRC16_CalcBufCrc) for CRC16_CalcBufCrc
    bsp_frame.o(i.resolve_frame) refers to malloc.o(i.malloc) for malloc
    bsp_frame.o(i.resolve_frame) refers to n32wb03x_crc.o(i.CRC16_CalcBufCrc) for CRC16_CalcBufCrc
    bsp_frame.o(i.resolve_frame) refers to printf8.o(i.__0printf$8) for __2printf
    bsp_frame.o(i.resolve_frame) refers to malloc.o(i.free) for free
    bsp_frame.o(i.resolve_frame) refers to bsp_frame.o(.data) for .data
    bsp_timer.o(i.SysTick_Handler) refers to bsp_timer.o(.data) for .data
    bsp_timer.o(i.timer_init) refers to bsp_tm1650.o(i.TM1650_Init) for TM1650_Init
    bsp_timer.o(i.timer_init) refers to bsp_tm1650.o(i.TM1650_SetDisplay) for TM1650_SetDisplay
    bsp_timer.o(i.timer_init) refers to bsp_tm1650.o(i.TM1650_DisplayInt) for TM1650_DisplayInt
    bsp_timer.o(i.timer_init) refers to system_n32wb03x.o(i.SystemCoreClockUpdate) for SystemCoreClockUpdate
    bsp_timer.o(i.timer_init) refers to uidiv.o(.text) for __aeabi_uidivmod
    bsp_timer.o(i.timer_init) refers to system_n32wb03x.o(.data) for SystemCoreClock
    bsp_timer.o(i.timer_run) refers to bsp_led.o(i.LedOff) for LedOff
    bsp_timer.o(i.timer_run) refers to bsp_led.o(i.LedBlink) for LedBlink
    bsp_timer.o(i.timer_run) refers to bsp_tm1650.o(i.TM1650_DisplayTime) for TM1650_DisplayTime
    bsp_timer.o(i.timer_run) refers to bsp_led.o(i.LedOn) for LedOn
    bsp_timer.o(i.timer_run) refers to bsp_relay.o(i.RelayOff) for RelayOff
    bsp_timer.o(i.timer_run) refers to bsp_timer.o(.data) for .data
    entry.o(.ARM.Collect$$$$00000000) refers (Special) to entry10a.o(.ARM.Collect$$$$0000000D) for __rt_final_cpp
    entry.o(.ARM.Collect$$$$00000000) refers (Special) to entry11a.o(.ARM.Collect$$$$0000000F) for __rt_final_exit
    entry.o(.ARM.Collect$$$$00000000) refers (Special) to entry7b.o(.ARM.Collect$$$$00000008) for _main_clock
    entry.o(.ARM.Collect$$$$00000000) refers (Special) to entry8b.o(.ARM.Collect$$$$0000000A) for _main_cpp_init
    entry.o(.ARM.Collect$$$$00000000) refers (Special) to entry9a.o(.ARM.Collect$$$$0000000B) for _main_init
    entry.o(.ARM.Collect$$$$00000000) refers (Special) to entry5.o(.ARM.Collect$$$$00000004) for _main_scatterload
    entry.o(.ARM.Collect$$$$00000000) refers (Special) to entry2.o(.ARM.Collect$$$$00000001) for _main_stk
    idiv.o(.text) refers to uidiv.o(.text) for __aeabi_uidivmod
    uldiv.o(.text) refers to llushr.o(.text) for __aeabi_llsr
    uldiv.o(.text) refers to llshl.o(.text) for __aeabi_llsl
    rand.o(.text) refers to rand.o(.data) for .data
    printfb.o(i.__0fprintf$bare) refers to printfb.o(i._printf_core) for _printf_core
    printfb.o(i.__0fprintf$bare) refers to ns_log_lpuart.o(i.fputc) for fputc
    printfb.o(i.__0printf$bare) refers to printfb.o(i._printf_core) for _printf_core
    printfb.o(i.__0printf$bare) refers to ns_log_lpuart.o(i.fputc) for fputc
    printfb.o(i.__0snprintf$bare) refers to printfb.o(i._printf_core) for _printf_core
    printfb.o(i.__0snprintf$bare) refers to printfb.o(i._snputc) for _snputc
    printfb.o(i.__0sprintf$bare) refers to printfb.o(i._printf_core) for _printf_core
    printfb.o(i.__0sprintf$bare) refers to printfb.o(i._sputc) for _sputc
    printfb.o(i.__0vfprintf$bare) refers to printfb.o(i._printf_core) for _printf_core
    printfb.o(i.__0vfprintf$bare) refers to ns_log_lpuart.o(i.fputc) for fputc
    printfb.o(i.__0vprintf$bare) refers to printfb.o(i._printf_core) for _printf_core
    printfb.o(i.__0vprintf$bare) refers to ns_log_lpuart.o(i.fputc) for fputc
    printfb.o(i.__0vsnprintf$bare) refers to printfb.o(i._printf_core) for _printf_core
    printfb.o(i.__0vsnprintf$bare) refers to printfb.o(i._snputc) for _snputc
    printfb.o(i.__0vsprintf$bare) refers to printfb.o(i._printf_core) for _printf_core
    printfb.o(i.__0vsprintf$bare) refers to printfb.o(i._sputc) for _sputc
    printf0.o(i.__0fprintf$0) refers to printf0.o(i._printf_core) for _printf_core
    printf0.o(i.__0fprintf$0) refers to ns_log_lpuart.o(i.fputc) for fputc
    printf0.o(i.__0printf$0) refers to printf0.o(i._printf_core) for _printf_core
    printf0.o(i.__0printf$0) refers to ns_log_lpuart.o(i.fputc) for fputc
    printf0.o(i.__0snprintf$0) refers to printf0.o(i._printf_core) for _printf_core
    printf0.o(i.__0snprintf$0) refers to printf0.o(i._snputc) for _snputc
    printf0.o(i.__0sprintf$0) refers to printf0.o(i._printf_core) for _printf_core
    printf0.o(i.__0sprintf$0) refers to printf0.o(i._sputc) for _sputc
    printf0.o(i.__0vfprintf$0) refers to printf0.o(i._printf_core) for _printf_core
    printf0.o(i.__0vfprintf$0) refers to ns_log_lpuart.o(i.fputc) for fputc
    printf0.o(i.__0vprintf$0) refers to printf0.o(i._printf_core) for _printf_core
    printf0.o(i.__0vprintf$0) refers to ns_log_lpuart.o(i.fputc) for fputc
    printf0.o(i.__0vsnprintf$0) refers to printf0.o(i._printf_core) for _printf_core
    printf0.o(i.__0vsnprintf$0) refers to printf0.o(i._snputc) for _snputc
    printf0.o(i.__0vsprintf$0) refers to printf0.o(i._printf_core) for _printf_core
    printf0.o(i.__0vsprintf$0) refers to printf0.o(i._sputc) for _sputc
    printf1.o(i.__0fprintf$1) refers to printf1.o(i._printf_core) for _printf_core
    printf1.o(i.__0fprintf$1) refers to ns_log_lpuart.o(i.fputc) for fputc
    printf1.o(i.__0printf$1) refers to printf1.o(i._printf_core) for _printf_core
    printf1.o(i.__0printf$1) refers to ns_log_lpuart.o(i.fputc) for fputc
    printf1.o(i.__0snprintf$1) refers to printf1.o(i._printf_core) for _printf_core
    printf1.o(i.__0snprintf$1) refers to printf1.o(i._snputc) for _snputc
    printf1.o(i.__0sprintf$1) refers to printf1.o(i._printf_core) for _printf_core
    printf1.o(i.__0sprintf$1) refers to printf1.o(i._sputc) for _sputc
    printf1.o(i.__0vfprintf$1) refers to printf1.o(i._printf_core) for _printf_core
    printf1.o(i.__0vfprintf$1) refers to ns_log_lpuart.o(i.fputc) for fputc
    printf1.o(i.__0vprintf$1) refers to printf1.o(i._printf_core) for _printf_core
    printf1.o(i.__0vprintf$1) refers to ns_log_lpuart.o(i.fputc) for fputc
    printf1.o(i.__0vsnprintf$1) refers to printf1.o(i._printf_core) for _printf_core
    printf1.o(i.__0vsnprintf$1) refers to printf1.o(i._snputc) for _snputc
    printf1.o(i.__0vsprintf$1) refers to printf1.o(i._printf_core) for _printf_core
    printf1.o(i.__0vsprintf$1) refers to printf1.o(i._sputc) for _sputc
    printf1.o(i._printf_core) refers to uidiv.o(.text) for __aeabi_uidivmod
    printf2.o(i.__0fprintf$2) refers to printf2.o(i._printf_core) for _printf_core
    printf2.o(i.__0fprintf$2) refers to ns_log_lpuart.o(i.fputc) for fputc
    printf2.o(i.__0printf$2) refers to printf2.o(i._printf_core) for _printf_core
    printf2.o(i.__0printf$2) refers to ns_log_lpuart.o(i.fputc) for fputc
    printf2.o(i.__0snprintf$2) refers to printf2.o(i._printf_core) for _printf_core
    printf2.o(i.__0snprintf$2) refers to printf2.o(i._snputc) for _snputc
    printf2.o(i.__0sprintf$2) refers to printf2.o(i._printf_core) for _printf_core
    printf2.o(i.__0sprintf$2) refers to printf2.o(i._sputc) for _sputc
    printf2.o(i.__0vfprintf$2) refers to printf2.o(i._printf_core) for _printf_core
    printf2.o(i.__0vfprintf$2) refers to ns_log_lpuart.o(i.fputc) for fputc
    printf2.o(i.__0vprintf$2) refers to printf2.o(i._printf_core) for _printf_core
    printf2.o(i.__0vprintf$2) refers to ns_log_lpuart.o(i.fputc) for fputc
    printf2.o(i.__0vsnprintf$2) refers to printf2.o(i._printf_core) for _printf_core
    printf2.o(i.__0vsnprintf$2) refers to printf2.o(i._snputc) for _snputc
    printf2.o(i.__0vsprintf$2) refers to printf2.o(i._printf_core) for _printf_core
    printf2.o(i.__0vsprintf$2) refers to printf2.o(i._sputc) for _sputc
    printf3.o(i.__0fprintf$3) refers to printf3.o(i._printf_core) for _printf_core
    printf3.o(i.__0fprintf$3) refers to ns_log_lpuart.o(i.fputc) for fputc
    printf3.o(i.__0printf$3) refers to printf3.o(i._printf_core) for _printf_core
    printf3.o(i.__0printf$3) refers to ns_log_lpuart.o(i.fputc) for fputc
    printf3.o(i.__0snprintf$3) refers to printf3.o(i._printf_core) for _printf_core
    printf3.o(i.__0snprintf$3) refers to printf3.o(i._snputc) for _snputc
    printf3.o(i.__0sprintf$3) refers to printf3.o(i._printf_core) for _printf_core
    printf3.o(i.__0sprintf$3) refers to printf3.o(i._sputc) for _sputc
    printf3.o(i.__0vfprintf$3) refers to printf3.o(i._printf_core) for _printf_core
    printf3.o(i.__0vfprintf$3) refers to ns_log_lpuart.o(i.fputc) for fputc
    printf3.o(i.__0vprintf$3) refers to printf3.o(i._printf_core) for _printf_core
    printf3.o(i.__0vprintf$3) refers to ns_log_lpuart.o(i.fputc) for fputc
    printf3.o(i.__0vsnprintf$3) refers to printf3.o(i._printf_core) for _printf_core
    printf3.o(i.__0vsnprintf$3) refers to printf3.o(i._snputc) for _snputc
    printf3.o(i.__0vsprintf$3) refers to printf3.o(i._printf_core) for _printf_core
    printf3.o(i.__0vsprintf$3) refers to printf3.o(i._sputc) for _sputc
    printf3.o(i._printf_core) refers to uidiv.o(.text) for __aeabi_uidivmod
    printf4.o(i.__0fprintf$4) refers to printf4.o(i._printf_core) for _printf_core
    printf4.o(i.__0fprintf$4) refers to ns_log_lpuart.o(i.fputc) for fputc
    printf4.o(i.__0printf$4) refers to printf4.o(i._printf_core) for _printf_core
    printf4.o(i.__0printf$4) refers to ns_log_lpuart.o(i.fputc) for fputc
    printf4.o(i.__0snprintf$4) refers to printf4.o(i._printf_core) for _printf_core
    printf4.o(i.__0snprintf$4) refers to printf4.o(i._snputc) for _snputc
    printf4.o(i.__0sprintf$4) refers to printf4.o(i._printf_core) for _printf_core
    printf4.o(i.__0sprintf$4) refers to printf4.o(i._sputc) for _sputc
    printf4.o(i.__0vfprintf$4) refers to printf4.o(i._printf_core) for _printf_core
    printf4.o(i.__0vfprintf$4) refers to ns_log_lpuart.o(i.fputc) for fputc
    printf4.o(i.__0vprintf$4) refers to printf4.o(i._printf_core) for _printf_core
    printf4.o(i.__0vprintf$4) refers to ns_log_lpuart.o(i.fputc) for fputc
    printf4.o(i.__0vsnprintf$4) refers to printf4.o(i._printf_core) for _printf_core
    printf4.o(i.__0vsnprintf$4) refers to printf4.o(i._snputc) for _snputc
    printf4.o(i.__0vsprintf$4) refers to printf4.o(i._printf_core) for _printf_core
    printf4.o(i.__0vsprintf$4) refers to printf4.o(i._sputc) for _sputc
    printf4.o(i._printf_core) refers to uldiv.o(.text) for __aeabi_uldivmod
    printf5.o(i.__0fprintf$5) refers to printf5.o(i._printf_core) for _printf_core
    printf5.o(i.__0fprintf$5) refers to ns_log_lpuart.o(i.fputc) for fputc
    printf5.o(i.__0printf$5) refers to printf5.o(i._printf_core) for _printf_core
    printf5.o(i.__0printf$5) refers to ns_log_lpuart.o(i.fputc) for fputc
    printf5.o(i.__0snprintf$5) refers to printf5.o(i._printf_core) for _printf_core
    printf5.o(i.__0snprintf$5) refers to printf5.o(i._snputc) for _snputc
    printf5.o(i.__0sprintf$5) refers to printf5.o(i._printf_core) for _printf_core
    printf5.o(i.__0sprintf$5) refers to printf5.o(i._sputc) for _sputc
    printf5.o(i.__0vfprintf$5) refers to printf5.o(i._printf_core) for _printf_core
    printf5.o(i.__0vfprintf$5) refers to ns_log_lpuart.o(i.fputc) for fputc
    printf5.o(i.__0vprintf$5) refers to printf5.o(i._printf_core) for _printf_core
    printf5.o(i.__0vprintf$5) refers to ns_log_lpuart.o(i.fputc) for fputc
    printf5.o(i.__0vsnprintf$5) refers to printf5.o(i._printf_core) for _printf_core
    printf5.o(i.__0vsnprintf$5) refers to printf5.o(i._snputc) for _snputc
    printf5.o(i.__0vsprintf$5) refers to printf5.o(i._printf_core) for _printf_core
    printf5.o(i.__0vsprintf$5) refers to printf5.o(i._sputc) for _sputc
    printf5.o(i._printf_core) refers to uldiv.o(.text) for __aeabi_uldivmod
    printf6.o(i.__0fprintf$6) refers to printf6.o(i._printf_core) for _printf_core
    printf6.o(i.__0fprintf$6) refers to ns_log_lpuart.o(i.fputc) for fputc
    printf6.o(i.__0printf$6) refers to printf6.o(i._printf_core) for _printf_core
    printf6.o(i.__0printf$6) refers to ns_log_lpuart.o(i.fputc) for fputc
    printf6.o(i.__0snprintf$6) refers to printf6.o(i._printf_core) for _printf_core
    printf6.o(i.__0snprintf$6) refers to printf6.o(i._snputc) for _snputc
    printf6.o(i.__0sprintf$6) refers to printf6.o(i._printf_core) for _printf_core
    printf6.o(i.__0sprintf$6) refers to printf6.o(i._sputc) for _sputc
    printf6.o(i.__0vfprintf$6) refers to printf6.o(i._printf_core) for _printf_core
    printf6.o(i.__0vfprintf$6) refers to ns_log_lpuart.o(i.fputc) for fputc
    printf6.o(i.__0vprintf$6) refers to printf6.o(i._printf_core) for _printf_core
    printf6.o(i.__0vprintf$6) refers to ns_log_lpuart.o(i.fputc) for fputc
    printf6.o(i.__0vsnprintf$6) refers to printf6.o(i._printf_core) for _printf_core
    printf6.o(i.__0vsnprintf$6) refers to printf6.o(i._snputc) for _snputc
    printf6.o(i.__0vsprintf$6) refers to printf6.o(i._printf_core) for _printf_core
    printf6.o(i.__0vsprintf$6) refers to printf6.o(i._sputc) for _sputc
    printf6.o(i._printf_core) refers to printf6.o(i._printf_pre_padding) for _printf_pre_padding
    printf6.o(i._printf_core) refers to printf6.o(i._printf_post_padding) for _printf_post_padding
    printf6.o(i._printf_core) refers to uidiv.o(.text) for __aeabi_uidivmod
    printf7.o(i.__0fprintf$7) refers to printf7.o(i._printf_core) for _printf_core
    printf7.o(i.__0fprintf$7) refers to ns_log_lpuart.o(i.fputc) for fputc
    printf7.o(i.__0printf$7) refers to printf7.o(i._printf_core) for _printf_core
    printf7.o(i.__0printf$7) refers to ns_log_lpuart.o(i.fputc) for fputc
    printf7.o(i.__0snprintf$7) refers to printf7.o(i._printf_core) for _printf_core
    printf7.o(i.__0snprintf$7) refers to printf7.o(i._snputc) for _snputc
    printf7.o(i.__0sprintf$7) refers to printf7.o(i._printf_core) for _printf_core
    printf7.o(i.__0sprintf$7) refers to printf7.o(i._sputc) for _sputc
    printf7.o(i.__0vfprintf$7) refers to printf7.o(i._printf_core) for _printf_core
    printf7.o(i.__0vfprintf$7) refers to ns_log_lpuart.o(i.fputc) for fputc
    printf7.o(i.__0vprintf$7) refers to printf7.o(i._printf_core) for _printf_core
    printf7.o(i.__0vprintf$7) refers to ns_log_lpuart.o(i.fputc) for fputc
    printf7.o(i.__0vsnprintf$7) refers to printf7.o(i._printf_core) for _printf_core
    printf7.o(i.__0vsnprintf$7) refers to printf7.o(i._snputc) for _snputc
    printf7.o(i.__0vsprintf$7) refers to printf7.o(i._printf_core) for _printf_core
    printf7.o(i.__0vsprintf$7) refers to printf7.o(i._sputc) for _sputc
    printf7.o(i._printf_core) refers to printf7.o(i._printf_pre_padding) for _printf_pre_padding
    printf7.o(i._printf_core) refers to printf7.o(i._printf_post_padding) for _printf_post_padding
    printf7.o(i._printf_core) refers to uldiv.o(.text) for __aeabi_uldivmod
    printf8.o(i.__0fprintf$8) refers to printf8.o(i._printf_core) for _printf_core
    printf8.o(i.__0fprintf$8) refers to ns_log_lpuart.o(i.fputc) for fputc
    printf8.o(i.__0printf$8) refers to printf8.o(i._printf_core) for _printf_core
    printf8.o(i.__0printf$8) refers to ns_log_lpuart.o(i.fputc) for fputc
    printf8.o(i.__0snprintf$8) refers to printf8.o(i._printf_core) for _printf_core
    printf8.o(i.__0snprintf$8) refers to printf8.o(i._snputc) for _snputc
    printf8.o(i.__0sprintf$8) refers to printf8.o(i._printf_core) for _printf_core
    printf8.o(i.__0sprintf$8) refers to printf8.o(i._sputc) for _sputc
    printf8.o(i.__0vfprintf$8) refers to printf8.o(i._printf_core) for _printf_core
    printf8.o(i.__0vfprintf$8) refers to ns_log_lpuart.o(i.fputc) for fputc
    printf8.o(i.__0vprintf$8) refers to printf8.o(i._printf_core) for _printf_core
    printf8.o(i.__0vprintf$8) refers to ns_log_lpuart.o(i.fputc) for fputc
    printf8.o(i.__0vsnprintf$8) refers to printf8.o(i._printf_core) for _printf_core
    printf8.o(i.__0vsnprintf$8) refers to printf8.o(i._snputc) for _snputc
    printf8.o(i.__0vsprintf$8) refers to printf8.o(i._printf_core) for _printf_core
    printf8.o(i.__0vsprintf$8) refers to printf8.o(i._sputc) for _sputc
    printf8.o(i._printf_core) refers to printf8.o(i._printf_pre_padding) for _printf_pre_padding
    printf8.o(i._printf_core) refers to printf8.o(i._printf_post_padding) for _printf_post_padding
    printf8.o(i._printf_core) refers to uldiv.o(.text) for __aeabi_uldivmod
    printfa.o(i.__0fprintf) refers (Special) to iusefp.o(.text) for __I$use$fp
    printfa.o(i.__0fprintf) refers to printfa.o(i._printf_core) for _printf_core
    printfa.o(i.__0fprintf) refers to ns_log_lpuart.o(i.fputc) for fputc
    printfa.o(i.__0printf) refers (Special) to iusefp.o(.text) for __I$use$fp
    printfa.o(i.__0printf) refers to printfa.o(i._printf_core) for _printf_core
    printfa.o(i.__0printf) refers to ns_log_lpuart.o(i.fputc) for fputc
    printfa.o(i.__0snprintf) refers (Special) to iusefp.o(.text) for __I$use$fp
    printfa.o(i.__0snprintf) refers to printfa.o(i._printf_core) for _printf_core
    printfa.o(i.__0snprintf) refers to printfa.o(i._snputc) for _snputc
    printfa.o(i.__0sprintf) refers (Special) to iusefp.o(.text) for __I$use$fp
    printfa.o(i.__0sprintf) refers to printfa.o(i._printf_core) for _printf_core
    printfa.o(i.__0sprintf) refers to printfa.o(i._sputc) for _sputc
    printfa.o(i.__0vfprintf) refers (Special) to iusefp.o(.text) for __I$use$fp
    printfa.o(i.__0vfprintf) refers to printfa.o(i._printf_core) for _printf_core
    printfa.o(i.__0vfprintf) refers to ns_log_lpuart.o(i.fputc) for fputc
    printfa.o(i.__0vprintf) refers (Special) to iusefp.o(.text) for __I$use$fp
    printfa.o(i.__0vprintf) refers to printfa.o(i._printf_core) for _printf_core
    printfa.o(i.__0vprintf) refers to ns_log_lpuart.o(i.fputc) for fputc
    printfa.o(i.__0vsnprintf) refers (Special) to iusefp.o(.text) for __I$use$fp
    printfa.o(i.__0vsnprintf) refers to printfa.o(i._printf_core) for _printf_core
    printfa.o(i.__0vsnprintf) refers to printfa.o(i._snputc) for _snputc
    printfa.o(i.__0vsprintf) refers (Special) to iusefp.o(.text) for __I$use$fp
    printfa.o(i.__0vsprintf) refers to printfa.o(i._printf_core) for _printf_core
    printfa.o(i.__0vsprintf) refers to printfa.o(i._sputc) for _sputc
    printfa.o(i._fp_digits) refers (Special) to iusefp.o(.text) for __I$use$fp
    printfa.o(i._fp_digits) refers to dmul.o(.text) for __aeabi_dmul
    printfa.o(i._fp_digits) refers to ddiv.o(.text) for __aeabi_ddiv
    printfa.o(i._fp_digits) refers to cdrcmple.o(.text) for __aeabi_cdrcmple
    printfa.o(i._fp_digits) refers to dadd.o(.text) for __aeabi_dadd
    printfa.o(i._fp_digits) refers to dfixul.o(.text) for __aeabi_d2ulz
    printfa.o(i._fp_digits) refers to uldiv.o(.text) for __aeabi_uldivmod
    printfa.o(i._printf_core) refers (Special) to iusefp.o(.text) for __I$use$fp
    printfa.o(i._printf_core) refers to printfa.o(i._printf_pre_padding) for _printf_pre_padding
    printfa.o(i._printf_core) refers to uldiv.o(.text) for __aeabi_uldivmod
    printfa.o(i._printf_core) refers to printfa.o(i._printf_post_padding) for _printf_post_padding
    printfa.o(i._printf_core) refers to printfa.o(i._fp_digits) for _fp_digits
    printfa.o(i._printf_core) refers to uidiv.o(.text) for __aeabi_uidivmod
    printfa.o(i._printf_post_padding) refers (Special) to iusefp.o(.text) for __I$use$fp
    printfa.o(i._printf_pre_padding) refers (Special) to iusefp.o(.text) for __I$use$fp
    printfa.o(i._snputc) refers (Special) to iusefp.o(.text) for __I$use$fp
    printfa.o(i._sputc) refers (Special) to iusefp.o(.text) for __I$use$fp
    malloc.o(i.free) refers to mvars.o(.data) for __microlib_freelist
    malloc.o(i.malloc) refers to mvars.o(.data) for __microlib_freelist_initialised
    malloc.o(i.malloc) refers to mvars.o(.data) for __microlib_freelist
    malloc.o(i.malloc) refers to startup_n32wb03x.o(HEAP) for __heap_base
    mallocr.o(i.__free$realloc) refers to mvars.o(.data) for __microlib_freelist
    mallocr.o(i.__malloc$realloc) refers to mallocr.o(i.internal_alloc) for internal_alloc
    mallocr.o(i.__malloc$realloc) refers to mvars.o(.data) for __microlib_freelist_initialised
    mallocr.o(i.__malloc$realloc) refers to startup_n32wb03x.o(HEAP) for __heap_base
    mallocr.o(i.__malloc$realloc) refers to mvars.o(.data) for __microlib_freelist
    mallocr.o(i.internal_alloc) refers to memcpya.o(.text) for __aeabi_memcpy
    mallocr.o(i.internal_alloc) refers to mvars.o(.data) for __microlib_freelist
    mallocr.o(i.realloc) refers to mallocr.o(i.__free$realloc) for __free$realloc
    mallocr.o(i.realloc) refers to mallocr.o(i.internal_alloc) for internal_alloc
    mallocr.o(i.realloc) refers to mallocr.o(i.__malloc$realloc) for __malloc$realloc
    mallocr.o(i.realloc) refers to mvars.o(.data) for __microlib_freelist
    malloca.o(i.__aligned_malloc) refers to mvars.o(.data) for __microlib_freelist
    malloca.o(i.__aligned_malloc) refers to mvars.o(.data) for __microlib_freelist_initialised
    malloca.o(i.__aligned_malloc) refers to startup_n32wb03x.o(HEAP) for __heap_base
    malloca.o(i.__free$memalign) refers to mvars.o(.data) for __microlib_freelist
    malloca.o(i.__malloc$memalign) refers to malloca.o(i.__aligned_malloc) for __aligned_malloc
    mallocra.o(i.__aligned_malloc$realloc) refers to mallocra.o(i.internal_alloc) for internal_alloc
    mallocra.o(i.__aligned_malloc$realloc) refers to startup_n32wb03x.o(HEAP) for __heap_base
    mallocra.o(i.__aligned_malloc$realloc) refers to mvars.o(.data) for __microlib_freelist
    mallocra.o(i.__aligned_malloc$realloc) refers to mvars.o(.data) for __microlib_freelist_initialised
    mallocra.o(i.__free$realloc$memalign) refers to mvars.o(.data) for __microlib_freelist
    mallocra.o(i.__malloc$realloc$memalign) refers to mallocra.o(i.__aligned_malloc$realloc) for __aligned_malloc$realloc
    mallocra.o(i.__realloc$memalign) refers to mallocra.o(i.__free$realloc$memalign) for __free$realloc$memalign
    mallocra.o(i.__realloc$memalign) refers to mallocra.o(i.internal_alloc) for internal_alloc
    mallocra.o(i.__realloc$memalign) refers to mallocra.o(i.__malloc$realloc$memalign) for __malloc$realloc$memalign
    mallocra.o(i.__realloc$memalign) refers to mvars.o(.data) for __microlib_freelist
    mallocra.o(i.internal_alloc) refers to memcpya.o(.text) for __aeabi_memcpy
    mallocra.o(i.internal_alloc) refers to mvars.o(.data) for __microlib_freelist
    fadd.o(.text) refers (Special) to iusefp.o(.text) for __I$use$fp
    fadd.o(.text) refers to fepilogue.o(.text) for _float_epilogue
    fmul.o(.text) refers (Special) to iusefp.o(.text) for __I$use$fp
    fdiv.o(.text) refers (Special) to iusefp.o(.text) for __I$use$fp
    fdiv.o(.text) refers to fepilogue.o(.text) for _float_round
    dadd.o(.text) refers (Special) to iusefp.o(.text) for __I$use$fp
    dadd.o(.text) refers to llshl.o(.text) for __aeabi_llsl
    dadd.o(.text) refers to llsshr.o(.text) for __aeabi_lasr
    dadd.o(.text) refers to depilogue.o(.text) for _double_epilogue
    dmul.o(.text) refers (Special) to iusefp.o(.text) for __I$use$fp
    dmul.o(.text) refers to depilogue.o(.text) for _double_epilogue
    ddiv.o(.text) refers (Special) to iusefp.o(.text) for __I$use$fp
    ddiv.o(.text) refers to depilogue.o(.text) for _double_round
    fflti.o(.text) refers (Special) to iusefp.o(.text) for __I$use$fp
    fflti.o(.text) refers to fepilogue.o(.text) for _float_epilogue
    ffltui.o(.text) refers (Special) to iusefp.o(.text) for __I$use$fp
    ffltui.o(.text) refers to fepilogue.o(.text) for _float_epilogue
    dfltui.o(.text) refers (Special) to iusefp.o(.text) for __I$use$fp
    dfltui.o(.text) refers to depilogue.o(.text) for _double_epilogue
    dfltul.o(.text) refers (Special) to iusefp.o(.text) for __I$use$fp
    dfltul.o(.text) refers to depilogue.o(.text) for _double_epilogue
    ffixui.o(.text) refers (Special) to iusefp.o(.text) for __I$use$fp
    dfixul.o(.text) refers (Special) to iusefp.o(.text) for __I$use$fp
    dfixul.o(.text) refers to llushr.o(.text) for __aeabi_llsr
    dfixul.o(.text) refers to llshl.o(.text) for __aeabi_llsl
    f2d.o(.text) refers (Special) to iusefp.o(.text) for __I$use$fp
    d2f.o(.text) refers (Special) to iusefp.o(.text) for __I$use$fp
    d2f.o(.text) refers to fepilogue.o(.text) for _float_round
    entry2.o(.ARM.Collect$$$$00000001) refers to entry2.o(.ARM.Collect$$$$00002712) for __lit__00000000
    entry2.o(.ARM.Collect$$$$00002712) refers to startup_n32wb03x.o(STACK) for __initial_sp
    entry2.o(__vectab_stack_and_reset_area) refers to startup_n32wb03x.o(STACK) for __initial_sp
    entry2.o(__vectab_stack_and_reset_area) refers to entry.o(.ARM.Collect$$$$00000000) for __main
    entry5.o(.ARM.Collect$$$$00000004) refers to init.o(.text) for __scatterload
    entry9a.o(.ARM.Collect$$$$0000000B) refers to main.o(i.main) for main
    entry9b.o(.ARM.Collect$$$$0000000C) refers to main.o(i.main) for main
    depilogue.o(.text) refers to depilogue.o(i.__ARM_clz) for __ARM_clz
    depilogue.o(.text) refers to llshl.o(.text) for __aeabi_llsl
    depilogue.o(.text) refers to llushr.o(.text) for __aeabi_llsr
    init.o(.text) refers to entry5.o(.ARM.Collect$$$$00000004) for __main_after_scatterload
    ns_sec.o(i.co_rand_word) refers to rand.o(.text) for rand


==============================================================================

Removing Unused input sections from the image.

    Removing system_n32wb03x.o(i.SystemGetUUID), (52 bytes).
    Removing system_n32wb03x.o(i.SystemTrimValueGet), (48 bytes).
    Removing system_n32wb03x.o(i.SystemTrimValueRead), (16 bytes).
    Removing system_n32wb03x.o(i.system_delay_n_10us), (12 bytes).
    Removing misc.o(.emb_text), (8 bytes).
    Removing misc.o(i.NVIC_Init), (120 bytes).
    Removing misc.o(i.SysTick_CLKSourceConfig), (24 bytes).
    Removing n32wb03x_adc.o(.emb_text), (8 bytes).
    Removing n32wb03x_adc.o(i.ADC16Bit_ConverValueToVoltage), (152 bytes).
    Removing n32wb03x_adc.o(i.ADC_ClearFlag), (6 bytes).
    Removing n32wb03x_adc.o(i.ADC_ConfigAnalogWatchdogThresholds), (24 bytes).
    Removing n32wb03x_adc.o(i.ADC_ConfigChannel), (14 bytes).
    Removing n32wb03x_adc.o(i.ADC_ConfigContinuousMode), (18 bytes).
    Removing n32wb03x_adc.o(i.ADC_ConfigEDThreshold), (34 bytes).
    Removing n32wb03x_adc.o(i.ADC_ConfigInt), (16 bytes).
    Removing n32wb03x_adc.o(i.ADC_ConfigVoiceZcrThresholds), (20 bytes).
    Removing n32wb03x_adc.o(i.ADC_ConverValueToTemperature), (84 bytes).
    Removing n32wb03x_adc.o(i.ADC_ConverValueToVoltage), (136 bytes).
    Removing n32wb03x_adc.o(i.ADC_DeInit), (84 bytes).
    Removing n32wb03x_adc.o(i.ADC_Enable), (20 bytes).
    Removing n32wb03x_adc.o(i.ADC_EnableAUDIOPGA), (18 bytes).
    Removing n32wb03x_adc.o(i.ADC_EnableAWD), (18 bytes).
    Removing n32wb03x_adc.o(i.ADC_EnableBypassFilter), (80 bytes).
    Removing n32wb03x_adc.o(i.ADC_EnableDMA), (18 bytes).
    Removing n32wb03x_adc.o(i.ADC_EnableEnergy), (18 bytes).
    Removing n32wb03x_adc.o(i.ADC_EnableMICBIAS), (20 bytes).
    Removing n32wb03x_adc.o(i.ADC_EnablePGA), (20 bytes).
    Removing n32wb03x_adc.o(i.ADC_EnableTS), (18 bytes).
    Removing n32wb03x_adc.o(i.ADC_EnableZeroCross), (20 bytes).
    Removing n32wb03x_adc.o(i.ADC_GetDat), (6 bytes).
    Removing n32wb03x_adc.o(i.ADC_GetFlagStatus), (14 bytes).
    Removing n32wb03x_adc.o(i.ADC_SetAUDIOAmplitude), (20 bytes).
    Removing n32wb03x_adc.o(i.ADC_SetAUDIOCurrent), (20 bytes).
    Removing n32wb03x_adc.o(i.ADC_SetMICOutputVoltage), (20 bytes).
    Removing n32wb03x_adc.o(i.ADC_SetNoiseOffset), (16 bytes).
    Removing n32wb03x_adc.o(i.ADC_SetOverSampleCounter), (24 bytes).
    Removing n32wb03x_adc.o(i.ADC_SetPGAGain), (20 bytes).
    Removing n32wb03x_crc.o(.emb_text), (8 bytes).
    Removing n32wb03x_crc.o(i.CRC16_CalcCRC), (12 bytes).
    Removing n32wb03x_crc.o(i.CRC32_CalcBufCrc), (32 bytes).
    Removing n32wb03x_crc.o(i.CRC32_CalcCrc), (12 bytes).
    Removing n32wb03x_crc.o(i.CRC32_GetCrc), (12 bytes).
    Removing n32wb03x_crc.o(i.CRC32_GetIDat), (12 bytes).
    Removing n32wb03x_crc.o(i.CRC32_ResetCrc), (12 bytes).
    Removing n32wb03x_crc.o(i.CRC32_SetIDat), (12 bytes).
    Removing n32wb03x_crc.o(i.__CRC16_CalcCrc), (12 bytes).
    Removing n32wb03x_crc.o(i.__CRC16_GetCrc), (12 bytes).
    Removing n32wb03x_crc.o(i.__CRC16_GetLRC), (12 bytes).
    Removing n32wb03x_crc.o(i.__CRC16_SetBigEndianFmt), (16 bytes).
    Removing n32wb03x_crc.o(i.__CRC16_SetCleanDisable), (16 bytes).
    Removing n32wb03x_crc.o(i.__CRC16_SetCleanEnable), (16 bytes).
    Removing n32wb03x_crc.o(i.__CRC16_SetCrc), (12 bytes).
    Removing n32wb03x_crc.o(i.__CRC16_SetLRC), (12 bytes).
    Removing n32wb03x_crc.o(i.__CRC16_SetLittleEndianFmt), (16 bytes).
    Removing n32wb03x_dma.o(.emb_text), (8 bytes).
    Removing n32wb03x_dma.o(i.DMA_ClrIntPendingBit), (4 bytes).
    Removing n32wb03x_dma.o(i.DMA_ConfigInt), (16 bytes).
    Removing n32wb03x_dma.o(i.DMA_DeInit), (136 bytes).
    Removing n32wb03x_dma.o(i.DMA_GetIntStatus), (14 bytes).
    Removing n32wb03x_dma.o(i.DMA_RequestRemap), (14 bytes).
    Removing n32wb03x_dma.o(i.DMA_SetCurrDataCounter), (4 bytes).
    Removing n32wb03x_dma.o(i.DMA_StructInit), (26 bytes).
    Removing n32wb03x_exti.o(.emb_text), (8 bytes).
    Removing n32wb03x_exti.o(i.EXTI_ClrStatusFlag), (12 bytes).
    Removing n32wb03x_exti.o(i.EXTI_DeInit), (28 bytes).
    Removing n32wb03x_exti.o(i.EXTI_GetStatusFlag), (20 bytes).
    Removing n32wb03x_exti.o(i.EXTI_InitStruct), (14 bytes).
    Removing n32wb03x_exti.o(i.EXTI_TriggerSWInt), (16 bytes).
    Removing n32wb03x_gpio.o(.emb_text), (8 bytes).
    Removing n32wb03x_gpio.o(i.AFIO_ConfigSPINSSMode), (24 bytes).
    Removing n32wb03x_gpio.o(i.GPIO_AFIOInitDefault), (20 bytes).
    Removing n32wb03x_gpio.o(i.GPIO_ConfigEXTILine), (340 bytes).
    Removing n32wb03x_gpio.o(i.GPIO_ConfigPinLock), (18 bytes).
    Removing n32wb03x_gpio.o(i.GPIO_ConfigPinRemap), (60 bytes).
    Removing n32wb03x_gpio.o(i.GPIO_DeInit), (56 bytes).
    Removing n32wb03x_gpio.o(i.GPIO_DeInitPin), (100 bytes).
    Removing n32wb03x_gpio.o(i.GPIO_ReadInputData), (6 bytes).
    Removing n32wb03x_gpio.o(i.GPIO_ReadInputDataBit), (14 bytes).
    Removing n32wb03x_gpio.o(i.GPIO_ReadOutputData), (6 bytes).
    Removing n32wb03x_gpio.o(i.GPIO_ReadOutputDataBit), (14 bytes).
    Removing n32wb03x_gpio.o(i.GPIO_Write), (4 bytes).
    Removing n32wb03x_gpio.o(i.GPIO_WriteBit), (12 bytes).
    Removing n32wb03x_rcc.o(.emb_text), (8 bytes).
    Removing n32wb03x_rcc.o(i.DBG_ConfigPeriph), (24 bytes).
    Removing n32wb03x_rcc.o(i.RCC_ClrFlag), (24 bytes).
    Removing n32wb03x_rcc.o(i.RCC_ClrIntPendingBit), (16 bytes).
    Removing n32wb03x_rcc.o(i.RCC_ConfigAdcClk), (20 bytes).
    Removing n32wb03x_rcc.o(i.RCC_ConfigHclk), (20 bytes).
    Removing n32wb03x_rcc.o(i.RCC_ConfigHse), (28 bytes).
    Removing n32wb03x_rcc.o(i.RCC_ConfigHsi), (28 bytes).
    Removing n32wb03x_rcc.o(i.RCC_ConfigInt), (24 bytes).
    Removing n32wb03x_rcc.o(i.RCC_ConfigLSXSEL), (24 bytes).
    Removing n32wb03x_rcc.o(i.RCC_ConfigLse), (40 bytes).
    Removing n32wb03x_rcc.o(i.RCC_ConfigMco), (24 bytes).
    Removing n32wb03x_rcc.o(i.RCC_ConfigPclk1), (20 bytes).
    Removing n32wb03x_rcc.o(i.RCC_ConfigPclk2), (24 bytes).
    Removing n32wb03x_rcc.o(i.RCC_ConfigSysclk), (20 bytes).
    Removing n32wb03x_rcc.o(i.RCC_ConfigTim1Clk), (20 bytes).
    Removing n32wb03x_rcc.o(i.RCC_DeInit), (76 bytes).
    Removing n32wb03x_rcc.o(i.RCC_EnableAHBPeriphReset), (24 bytes).
    Removing n32wb03x_rcc.o(i.RCC_EnableAPB1PeriphClk), (24 bytes).
    Removing n32wb03x_rcc.o(i.RCC_EnableAPB1PeriphReset), (24 bytes).
    Removing n32wb03x_rcc.o(i.RCC_EnableAPB2PeriphReset), (24 bytes).
    Removing n32wb03x_rcc.o(i.RCC_EnableHsi), (28 bytes).
    Removing n32wb03x_rcc.o(i.RCC_EnableLsi), (28 bytes).
    Removing n32wb03x_rcc.o(i.RCC_EnableRTCReset), (28 bytes).
    Removing n32wb03x_rcc.o(i.RCC_EnableRtcClk), (28 bytes).
    Removing n32wb03x_rcc.o(i.RCC_Enable_ADC_CLK_SRC_AUDIOPLL), (28 bytes).
    Removing n32wb03x_rcc.o(i.RCC_GetFlagStatus), (48 bytes).
    Removing n32wb03x_rcc.o(i.RCC_GetIntStatus), (20 bytes).
    Removing n32wb03x_rcc.o(i.RCC_GetRTCClkSrc), (16 bytes).
    Removing n32wb03x_rcc.o(i.RCC_GetSysclkSrc), (16 bytes).
    Removing n32wb03x_rcc.o(i.RCC_WaitHseStable), (56 bytes).
    Removing n32wb03x_rcc.o(i.RCC_WaitHsiStable), (56 bytes).
    Removing n32wb03x_tim.o(.emb_text), (8 bytes).
    Removing n32wb03x_tim.o(i.ConfigTI1), (76 bytes).
    Removing n32wb03x_tim.o(i.ConfigTI2), (84 bytes).
    Removing n32wb03x_tim.o(i.TIM_ClearFlag), (8 bytes).
    Removing n32wb03x_tim.o(i.TIM_ClrIntPendingBit), (8 bytes).
    Removing n32wb03x_tim.o(i.TIM_ClrOc1Ref), (12 bytes).
    Removing n32wb03x_tim.o(i.TIM_ClrOc2Ref), (14 bytes).
    Removing n32wb03x_tim.o(i.TIM_ClrOc3Ref), (12 bytes).
    Removing n32wb03x_tim.o(i.TIM_ClrOc4Ref), (14 bytes).
    Removing n32wb03x_tim.o(i.TIM_ConfigArPreload), (18 bytes).
    Removing n32wb03x_tim.o(i.TIM_ConfigBkdt), (88 bytes).
    Removing n32wb03x_tim.o(i.TIM_ConfigCntMode), (12 bytes).
    Removing n32wb03x_tim.o(i.TIM_ConfigDma), (8 bytes).
    Removing n32wb03x_tim.o(i.TIM_ConfigEncoderInterface), (52 bytes).
    Removing n32wb03x_tim.o(i.TIM_ConfigExtClkMode1), (38 bytes).
    Removing n32wb03x_tim.o(i.TIM_ConfigExtClkMode2), (30 bytes).
    Removing n32wb03x_tim.o(i.TIM_ConfigExtTrig), (20 bytes).
    Removing n32wb03x_tim.o(i.TIM_ConfigExtTrigAsClk), (50 bytes).
    Removing n32wb03x_tim.o(i.TIM_ConfigForcedOc1), (12 bytes).
    Removing n32wb03x_tim.o(i.TIM_ConfigForcedOc2), (20 bytes).
    Removing n32wb03x_tim.o(i.TIM_ConfigForcedOc3), (12 bytes).
    Removing n32wb03x_tim.o(i.TIM_ConfigForcedOc4), (20 bytes).
    Removing n32wb03x_tim.o(i.TIM_ConfigInt), (16 bytes).
    Removing n32wb03x_tim.o(i.TIM_ConfigInternalClk), (10 bytes).
    Removing n32wb03x_tim.o(i.TIM_ConfigInternalTrigToExt), (20 bytes).
    Removing n32wb03x_tim.o(i.TIM_ConfigOc1Fast), (12 bytes).
    Removing n32wb03x_tim.o(i.TIM_ConfigOc1NPolarity), (12 bytes).
    Removing n32wb03x_tim.o(i.TIM_ConfigOc1Polarity), (12 bytes).
    Removing n32wb03x_tim.o(i.TIM_ConfigOc2Fast), (20 bytes).
    Removing n32wb03x_tim.o(i.TIM_ConfigOc2NPolarity), (14 bytes).
    Removing n32wb03x_tim.o(i.TIM_ConfigOc2Polarity), (14 bytes).
    Removing n32wb03x_tim.o(i.TIM_ConfigOc2Preload), (20 bytes).
    Removing n32wb03x_tim.o(i.TIM_ConfigOc3Fast), (12 bytes).
    Removing n32wb03x_tim.o(i.TIM_ConfigOc3NPolarity), (16 bytes).
    Removing n32wb03x_tim.o(i.TIM_ConfigOc3Polarity), (16 bytes).
    Removing n32wb03x_tim.o(i.TIM_ConfigOc3Preload), (12 bytes).
    Removing n32wb03x_tim.o(i.TIM_ConfigOc4Fast), (20 bytes).
    Removing n32wb03x_tim.o(i.TIM_ConfigOc4Polarity), (16 bytes).
    Removing n32wb03x_tim.o(i.TIM_ConfigOc4Preload), (20 bytes).
    Removing n32wb03x_tim.o(i.TIM_ConfigPrescaler), (6 bytes).
    Removing n32wb03x_tim.o(i.TIM_ConfigPwmIc), (144 bytes).
    Removing n32wb03x_tim.o(i.TIM_ConfigUpdateRequestIntSrc), (18 bytes).
    Removing n32wb03x_tim.o(i.TIM_DeInit), (84 bytes).
    Removing n32wb03x_tim.o(i.TIM_Enable), (20 bytes).
    Removing n32wb03x_tim.o(i.TIM_EnableCapCmpCh), (26 bytes).
    Removing n32wb03x_tim.o(i.TIM_EnableCapCmpChN), (26 bytes).
    Removing n32wb03x_tim.o(i.TIM_EnableCapCmpPreloadControl), (20 bytes).
    Removing n32wb03x_tim.o(i.TIM_EnableCtrlPwmOutputs), (24 bytes).
    Removing n32wb03x_tim.o(i.TIM_EnableDma), (16 bytes).
    Removing n32wb03x_tim.o(i.TIM_EnableOc1Preload), (12 bytes).
    Removing n32wb03x_tim.o(i.TIM_EnableUpdateEvt), (18 bytes).
    Removing n32wb03x_tim.o(i.TIM_GenerateEvent), (4 bytes).
    Removing n32wb03x_tim.o(i.TIM_GetCap1), (4 bytes).
    Removing n32wb03x_tim.o(i.TIM_GetCap2), (4 bytes).
    Removing n32wb03x_tim.o(i.TIM_GetCap3), (4 bytes).
    Removing n32wb03x_tim.o(i.TIM_GetCap4), (6 bytes).
    Removing n32wb03x_tim.o(i.TIM_GetCnt), (4 bytes).
    Removing n32wb03x_tim.o(i.TIM_GetFlagStatus), (14 bytes).
    Removing n32wb03x_tim.o(i.TIM_GetIntStatus), (24 bytes).
    Removing n32wb03x_tim.o(i.TIM_GetPrescaler), (4 bytes).
    Removing n32wb03x_tim.o(i.TIM_ICInit), (288 bytes).
    Removing n32wb03x_tim.o(i.TIM_InitBkdtStruct), (18 bytes).
    Removing n32wb03x_tim.o(i.TIM_InitIcStruct), (16 bytes).
    Removing n32wb03x_tim.o(i.TIM_InitOc1), (96 bytes).
    Removing n32wb03x_tim.o(i.TIM_InitOc2), (112 bytes).
    Removing n32wb03x_tim.o(i.TIM_InitOc3), (112 bytes).
    Removing n32wb03x_tim.o(i.TIM_InitOc4), (92 bytes).
    Removing n32wb03x_tim.o(i.TIM_InitOcStruct), (20 bytes).
    Removing n32wb03x_tim.o(i.TIM_InitTimBaseStruct), (28 bytes).
    Removing n32wb03x_tim.o(i.TIM_InitTimeBase), (176 bytes).
    Removing n32wb03x_tim.o(i.TIM_SelectCapCmpDmaSrc), (18 bytes).
    Removing n32wb03x_tim.o(i.TIM_SelectComEvt), (18 bytes).
    Removing n32wb03x_tim.o(i.TIM_SelectHallSensor), (18 bytes).
    Removing n32wb03x_tim.o(i.TIM_SelectInputTrig), (12 bytes).
    Removing n32wb03x_tim.o(i.TIM_SelectMasterSlaveMode), (16 bytes).
    Removing n32wb03x_tim.o(i.TIM_SelectOcMode), (82 bytes).
    Removing n32wb03x_tim.o(i.TIM_SelectOnePulseMode), (16 bytes).
    Removing n32wb03x_tim.o(i.TIM_SelectOutputTrig), (16 bytes).
    Removing n32wb03x_tim.o(i.TIM_SelectSlaveMode), (16 bytes).
    Removing n32wb03x_tim.o(i.TIM_SetAutoReload), (4 bytes).
    Removing n32wb03x_tim.o(i.TIM_SetClkDiv), (18 bytes).
    Removing n32wb03x_tim.o(i.TIM_SetCmp1), (4 bytes).
    Removing n32wb03x_tim.o(i.TIM_SetCmp2), (4 bytes).
    Removing n32wb03x_tim.o(i.TIM_SetCmp3), (4 bytes).
    Removing n32wb03x_tim.o(i.TIM_SetCmp4), (6 bytes).
    Removing n32wb03x_tim.o(i.TIM_SetCnt), (4 bytes).
    Removing n32wb03x_tim.o(i.TIM_SetInCap1Prescaler), (16 bytes).
    Removing n32wb03x_tim.o(i.TIM_SetInCap2Prescaler), (24 bytes).
    Removing n32wb03x_tim.o(i.TIM_SetInCap3Prescaler), (16 bytes).
    Removing n32wb03x_tim.o(i.TIM_SetInCap4Prescaler), (24 bytes).
    Removing n32wb03x_usart.o(.emb_text), (8 bytes).
    Removing n32wb03x_usart.o(i.USART_ClockInit), (36 bytes).
    Removing n32wb03x_usart.o(i.USART_ClockStructInit), (12 bytes).
    Removing n32wb03x_usart.o(i.USART_ClrFlag), (6 bytes).
    Removing n32wb03x_usart.o(i.USART_ClrIntPendingBit), (12 bytes).
    Removing n32wb03x_usart.o(i.USART_ConfigInt), (50 bytes).
    Removing n32wb03x_usart.o(i.USART_ConfigIrDAMode), (16 bytes).
    Removing n32wb03x_usart.o(i.USART_ConfigLINBreakDetectLength), (16 bytes).
    Removing n32wb03x_usart.o(i.USART_ConfigWakeUpMode), (20 bytes).
    Removing n32wb03x_usart.o(i.USART_DeInit), (52 bytes).
    Removing n32wb03x_usart.o(i.USART_Enable), (28 bytes).
    Removing n32wb03x_usart.o(i.USART_EnableDMA), (16 bytes).
    Removing n32wb03x_usart.o(i.USART_EnableHalfDuplex), (18 bytes).
    Removing n32wb03x_usart.o(i.USART_EnableIrDA), (18 bytes).
    Removing n32wb03x_usart.o(i.USART_EnableLIN), (28 bytes).
    Removing n32wb03x_usart.o(i.USART_EnableRcvWakeUp), (18 bytes).
    Removing n32wb03x_usart.o(i.USART_EnableSmartCard), (18 bytes).
    Removing n32wb03x_usart.o(i.USART_GetIntStatus), (64 bytes).
    Removing n32wb03x_usart.o(i.USART_Init), (136 bytes).
    Removing n32wb03x_usart.o(i.USART_ReceiveData), (8 bytes).
    Removing n32wb03x_usart.o(i.USART_SendBreak), (10 bytes).
    Removing n32wb03x_usart.o(i.USART_SendData), (8 bytes).
    Removing n32wb03x_usart.o(i.USART_SetAddr), (16 bytes).
    Removing n32wb03x_usart.o(i.USART_SetGuardTime), (16 bytes).
    Removing n32wb03x_usart.o(i.USART_SetPrescaler), (16 bytes).
    Removing n32wb03x_usart.o(i.USART_SetSmartCardNACK), (18 bytes).
    Removing n32wb03x_usart.o(i.USART_StructInit), (22 bytes).
    Removing n32wb03x_spi.o(.emb_text), (8 bytes).
    Removing n32wb03x_spi.o(i.I2S_Enable), (28 bytes).
    Removing n32wb03x_spi.o(i.I2S_Init), (132 bytes).
    Removing n32wb03x_spi.o(i.I2S_InitStruct), (16 bytes).
    Removing n32wb03x_spi.o(i.SPI_ConfigBidirectionalMode), (28 bytes).
    Removing n32wb03x_spi.o(i.SPI_ConfigDataLen), (20 bytes).
    Removing n32wb03x_spi.o(i.SPI_Enable), (18 bytes).
    Removing n32wb03x_spi.o(i.SPI_EnableCalculateCrc), (28 bytes).
    Removing n32wb03x_spi.o(i.SPI_GetCRCDat), (12 bytes).
    Removing n32wb03x_spi.o(i.SPI_GetCRCPoly), (4 bytes).
    Removing n32wb03x_spi.o(i.SPI_I2S_ClrCRCErrFlag), (6 bytes).
    Removing n32wb03x_spi.o(i.SPI_I2S_ClrITPendingBit), (14 bytes).
    Removing n32wb03x_spi.o(i.SPI_I2S_DeInit), (52 bytes).
    Removing n32wb03x_spi.o(i.SPI_I2S_EnableDma), (16 bytes).
    Removing n32wb03x_spi.o(i.SPI_I2S_EnableInt), (24 bytes).
    Removing n32wb03x_spi.o(i.SPI_I2S_GetIntStatus), (44 bytes).
    Removing n32wb03x_spi.o(i.SPI_I2S_GetStatus), (14 bytes).
    Removing n32wb03x_spi.o(i.SPI_I2S_ReceiveData), (4 bytes).
    Removing n32wb03x_spi.o(i.SPI_I2S_TransmitData), (4 bytes).
    Removing n32wb03x_spi.o(i.SPI_Init), (64 bytes).
    Removing n32wb03x_spi.o(i.SPI_InitStruct), (24 bytes).
    Removing n32wb03x_spi.o(i.SPI_SSOutputEnable), (18 bytes).
    Removing n32wb03x_spi.o(i.SPI_SetNssLevel), (28 bytes).
    Removing n32wb03x_spi.o(i.SPI_TransmitCrcNext), (12 bytes).
    Removing n32wb03x_lpuart.o(.emb_text), (8 bytes).
    Removing n32wb03x_lpuart.o(i.LPUART_ClrIntPendingBit), (6 bytes).
    Removing n32wb03x_lpuart.o(i.LPUART_ConfigInt), (16 bytes).
    Removing n32wb03x_lpuart.o(i.LPUART_ConfigSamplingMethod), (16 bytes).
    Removing n32wb03x_lpuart.o(i.LPUART_ConfigWakeUpData), (4 bytes).
    Removing n32wb03x_lpuart.o(i.LPUART_ConfigWakeUpMethod), (20 bytes).
    Removing n32wb03x_lpuart.o(i.LPUART_EnableDMA), (16 bytes).
    Removing n32wb03x_lpuart.o(i.LPUART_EnableLoopBack), (18 bytes).
    Removing n32wb03x_lpuart.o(i.LPUART_EnableWakeUpStop), (24 bytes).
    Removing n32wb03x_lpuart.o(i.LPUART_FlushRxFifo), (32 bytes).
    Removing n32wb03x_lpuart.o(i.LPUART_GetIntStatus), (38 bytes).
    Removing n32wb03x_lpuart.o(i.LPUART_ReceiveData), (4 bytes).
    Removing n32wb03x_lpuart.o(i.LPUART_StructInit), (24 bytes).
    Removing n32wb03x_qflash.o(.emb_text), (8 bytes).
    Removing n32wb03x_qflash.o(i.Qflash_Read), (36 bytes).
    Removing lib_att.o(.emb_text), (8 bytes).
    Removing lib_att.o(i.attm_att_set_permission), (184 bytes).
    Removing lib_att.o(i.attm_reserve_handle_range), (32 bytes).
    Removing rwip.o(.emb_text), (8 bytes).
    Removing rwip.o(i.rwip_reset), (136 bytes).
    Removing rwip_driver.o(.emb_text), (8 bytes).
    Removing rwip_driver.o(i.radio_freq_cal_from_trim), (48 bytes).
    Removing rwip_driver.o(i.radio_hse_mco_set), (152 bytes).
    Removing rwip_driver.o(i.radio_read_trim_mac_address), (60 bytes).
    Removing rwip_driver.o(i.radio_read_trim_mco_freq), (48 bytes).
    Removing rwip_driver.o(i.rf_tx_power_set), (124 bytes).
    Removing rwip_driver.o(i.rwip_sleep), (308 bytes).
    Removing prf.o(.emb_text), (8 bytes).
    Removing prf.o(i.prf_cleanup), (92 bytes).
    Removing prf.o(i.prf_create), (92 bytes).
    Removing prf.o(i.prf_src_task_get), (16 bytes).
    Removing prf_utils.o(.emb_text), (8 bytes).
    Removing prf_utils.o(i.prf_pack_date_time), (32 bytes).
    Removing prf_utils.o(i.prf_unpack_date_time), (34 bytes).
    Removing diss.o(.emb_text), (8 bytes).
    Removing diss.o(i.diss_compute_cfg_flag), (40 bytes).
    Removing diss_task.o(.emb_text), (8 bytes).
    Removing bass.o(.emb_text), (8 bytes).
    Removing bass_task.o(.emb_text), (8 bytes).
    Removing rdtss.o(.emb_text), (8 bytes).
    Removing rdtss_task.o(.emb_text), (8 bytes).
    Removing rdts_common.o(.emb_text), (8 bytes).
    Removing ns_log_lpuart.o(.emb_text), (8 bytes).
    Removing ns_log_lpuart.o(i.GPIO_Configuration), (44 bytes).
    Removing ns_log_lpuart.o(i.RCC_Configuration), (36 bytes).
    Removing ns_log_lpuart.o(i.ns_log_lpuart_deinit), (2 bytes).
    Removing ns_sleep.o(.emb_text), (8 bytes).
    Removing ns_sleep.o(i.app_sleep_prepare_proc), (2 bytes).
    Removing ns_sleep.o(i.app_sleep_resume_proc), (2 bytes).
    Removing ns_sleep.o(i.entry_idle), (40 bytes).
    Removing ns_sleep.o(i.entry_sleep), (176 bytes).
    Removing ns_sleep.o(i.ns_sleep), (180 bytes).
    Removing ns_error.o(i.error_handler), (32 bytes).
    Removing ns_error.o(.bss), (12 bytes).
    Removing ns_timer.o(.emb_text), (8 bytes).
    Removing ns_timer.o(i.ns_timer_cancel), (76 bytes).
    Removing ns_timer.o(i.ns_timer_cancel_all), (96 bytes).
    Removing ns_timer.o(i.ns_timer_create), (64 bytes).
    Removing ns_timer.o(i.ns_timer_modify), (96 bytes).
    Removing ns_sec.o(.emb_text), (8 bytes).
    Removing ns_sec.o(i.ns_sec_bond_db_erase_all), (20 bytes).
    Removing ns_sec.o(i.ns_sec_pincode_respond), (64 bytes).
    Removing ns_sec.o(i.ns_sec_send_bond_start), (64 bytes).
    Removing ns_sec.o(i.ns_sec_send_encrypt_req), (220 bytes).
    Removing ns_sec.o(i.ns_sec_send_security_req), (40 bytes).
    Removing ns_ble.o(.emb_text), (8 bytes).
    Removing ns_ble.o(i.ns_ble_active_rssi), (52 bytes).
    Removing ns_ble.o(i.ns_ble_adv_data_set), (80 bytes).
    Removing ns_ble.o(i.ns_ble_create_init), (52 bytes).
    Removing ns_ble.o(i.ns_ble_create_scan), (52 bytes).
    Removing ns_ble.o(i.ns_ble_dle_set), (48 bytes).
    Removing ns_ble.o(i.ns_ble_ex_adv_data_set), (60 bytes).
    Removing ns_ble.o(i.ns_ble_get_active_connection), (12 bytes).
    Removing ns_ble.o(i.ns_ble_get_conidx_by_role), (56 bytes).
    Removing ns_ble.o(i.ns_ble_get_connection_state), (32 bytes).
    Removing ns_ble.o(i.ns_ble_get_peer_info), (40 bytes).
    Removing ns_ble.o(i.ns_ble_list_set_wl), (72 bytes).
    Removing ns_ble.o(i.ns_ble_master_connection_num), (48 bytes).
    Removing ns_ble.o(i.ns_ble_mtu_set), (52 bytes).
    Removing ns_ble.o(i.ns_ble_phy_set), (56 bytes).
    Removing ns_ble.o(i.ns_ble_prod_test_cmd_send), (92 bytes).
    Removing ns_ble.o(i.ns_ble_radio_calibration), (44 bytes).
    Removing ns_ble.o(i.ns_ble_radio_power_set), (8 bytes).
    Removing ns_ble.o(i.ns_ble_resolv_addr), (64 bytes).
    Removing ns_ble.o(i.ns_ble_scan_init), (28 bytes).
    Removing ns_ble.o(i.ns_ble_scan_rsp_data_set), (68 bytes).
    Removing ns_ble.o(i.ns_ble_set_active_connection), (12 bytes).
    Removing ns_ble.o(i.ns_ble_set_channel_map), (44 bytes).
    Removing ns_ble.o(i.ns_ble_set_slave_latency), (44 bytes).
    Removing ns_ble.o(i.ns_ble_slave_connection_num), (48 bytes).
    Removing ns_ble.o(i.ns_iwdg_config), (80 bytes).
    Removing ns_ble.o(i.ns_iwdg_reload), (80 bytes).
    Removing ns_ble_task.o(.emb_text), (8 bytes).
    Removing app_dis.o(.emb_text), (8 bytes).
    Removing app_dis.o(i.app_dis_init), (48 bytes).
    Removing app_batt.o(.emb_text), (8 bytes).
    Removing app_rdtss.o(.emb_text), (8 bytes).
    Removing app_rdtss.o(i.app_rdtss_init), (48 bytes).
    Removing app_ble.o(.emb_text), (8 bytes).
    Removing app_ble.o(i.app_ble_connected), (28 bytes).
    Removing app_ble.o(i.app_ble_disconnected), (32 bytes).
    Removing app_ble.o(i.app_ble_prf_init), (24 bytes).
    Removing main.o(.emb_text), (8 bytes).
    Removing main.o(i.app_sleep_prepare_proc), (2 bytes).
    Removing main.o(i.app_sleep_resume_proc), (2 bytes).
    Removing bsp_usart.o(.emb_text), (8 bytes).
    Removing bsp_usart.o(i.DMA_Configuration), (136 bytes).
    Removing bsp_usart.o(i.GPIO_Configuration_USART), (56 bytes).
    Removing bsp_usart.o(i.NVIC_Configuration), (56 bytes).
    Removing bsp_usart.o(i.RCC_Configuration_USART), (28 bytes).
    Removing bsp_usart.o(i.app_usart_configuration), (212 bytes).
    Removing bsp_usart.o(i.app_usart_dma_enable), (112 bytes).
    Removing bsp_usart.o(i.app_usart_tx_fifo_enter), (180 bytes).
    Removing bsp_usart.o(i.usart_forward_to_ble_loop), (192 bytes).
    Removing bsp_usart.o(i.usart_tx_data_blocking), (40 bytes).
    Removing bsp_buzzer.o(.emb_text), (8 bytes).
    Removing bsp_key.o(.emb_text), (8 bytes).
    Removing bsp_key.o(i.Delay_ms), (20 bytes).
    Removing bsp_key.o(i.KeyInit), (124 bytes).
    Removing bsp_key.o(.data), (4 bytes).
    Removing bsp_led.o(.emb_text), (8 bytes).
    Removing bsp_relay.o(.emb_text), (8 bytes).
    Removing bsp_tm1650.o(.emb_text), (8 bytes).
    Removing bsp_init.o(.emb_text), (8 bytes).
    Removing bsp_frame.o(.emb_text), (8 bytes).
    Removing bsp_frame.o(.data), (2 bytes).
    Removing bsp_timer.o(.emb_text), (8 bytes).
    Removing fifo.o(i.fifo_init), (14 bytes).
    Removing fifo.o(i.fifo_read), (58 bytes).
    Removing fifo.o(i.fifo_write), (76 bytes).
    Removing fadd.o(.text), (178 bytes).
    Removing fmul.o(.text), (122 bytes).
    Removing fdiv.o(.text), (124 bytes).
    Removing dadd.o(.text), (356 bytes).
    Removing fflti.o(.text), (22 bytes).
    Removing ffltui.o(.text), (14 bytes).
    Removing ffixui.o(.text), (40 bytes).
    Removing f2d.o(.text), (40 bytes).
    Removing d2f.o(.text), (56 bytes).
    Removing fepilogue.o(.text), (130 bytes).
    Removing cdrcmple.o(.text), (40 bytes).
    Removing rwip_driver.o(i.co_max), (8 bytes).
    Removing rwip_driver.o(i.__ARM_common_ll_mulss), (50 bytes).
    Removing rwip_driver.o(i.__ARM_common_ll_muluu), (50 bytes).
    Removing rwip_driver.o(i.__ARM_common_memcpy1_6), (26 bytes).
    Removing ns_sec.o(i.co_rand_word), (8 bytes).
    Removing ns_ble.o(i.__ARM_common_memcpy1_5), (22 bytes).

402 unused section(s) (total 14644 bytes) removed from the image.

==============================================================================

Adding Veneers to the image

    Adding TT veneer (12 bytes, Long) for call to '__ARM_common_memcpy1_6' from app_ble.o(i.app_ble_gap_params_init).
    Adding TT veneer (12 bytes, Long) for call to 'attmdb_get_attribute' from lib_att.o(i.attm_att_set_value).
    Adding TT veneer (12 bytes, Long) for call to 'attmdb_uuid16_comp' from lib_att.o(i.attm_att_set_value).
    Adding TT veneer (12 bytes, Long) for call to 'attm_svc_create_db' from diss.o(i.diss_init).
    Adding TT veneer (12 bytes, Long) for call to 'attmdb_att_get_permission' from rdtss_task.o(i.gattc_write_req_ind_handler).
    Adding TT veneer (12 bytes, Long) for call to 'attmdb_get_service' from rdts_common.o(i.get_cfg_handle).
    Adding TT veneer (12 bytes, Long) for call to 'attmdb_get_uuid' from rdts_common.o(i.get_cfg_handle).
    Adding TT veneer (12 bytes, Long) for call to 'attm_svc_create_db_128' from rdtss.o(i.rdtss_init).
    Adding TT veneer (12 bytes, Long) for call to 'ahi_init' from rwip.o(i.rwip_init).
    Adding TT veneer (12 bytes, Long) for call to '__ARM_common_ll_muluu' from rwip_driver.o(i.rwip_slp_isr).

10 Veneer(s) (total 120 bytes) added to the image.

==============================================================================

Image Symbol Table

    Local Symbols

    Symbol Name                              Value     Ov Type        Size  Object(Section)

    ../clib/../cmprslib/lz77c.c              0x00000000   Number         0  __dclz77c.o ABSOLUTE
    ../clib/microlib/division.c              0x00000000   Number         0  idiv.o ABSOLUTE
    ../clib/microlib/division.c              0x00000000   Number         0  uldiv.o ABSOLUTE
    ../clib/microlib/division.c              0x00000000   Number         0  uidiv.o ABSOLUTE
    ../clib/microlib/init/entry.s            0x00000000   Number         0  entry10b.o ABSOLUTE
    ../clib/microlib/init/entry.s            0x00000000   Number         0  entry5.o ABSOLUTE
    ../clib/microlib/init/entry.s            0x00000000   Number         0  entry7a.o ABSOLUTE
    ../clib/microlib/init/entry.s            0x00000000   Number         0  entry7b.o ABSOLUTE
    ../clib/microlib/init/entry.s            0x00000000   Number         0  entry11a.o ABSOLUTE
    ../clib/microlib/init/entry.s            0x00000000   Number         0  entry8a.o ABSOLUTE
    ../clib/microlib/init/entry.s            0x00000000   Number         0  entry8b.o ABSOLUTE
    ../clib/microlib/init/entry.s            0x00000000   Number         0  entry9a.o ABSOLUTE
    ../clib/microlib/init/entry.s            0x00000000   Number         0  entry11b.o ABSOLUTE
    ../clib/microlib/init/entry.s            0x00000000   Number         0  entry9b.o ABSOLUTE
    ../clib/microlib/init/entry.s            0x00000000   Number         0  entry2.o ABSOLUTE
    ../clib/microlib/init/entry.s            0x00000000   Number         0  entry.o ABSOLUTE
    ../clib/microlib/init/entry.s            0x00000000   Number         0  entry10a.o ABSOLUTE
    ../clib/microlib/longlong.c              0x00000000   Number         0  llsshr.o ABSOLUTE
    ../clib/microlib/longlong.c              0x00000000   Number         0  llushr.o ABSOLUTE
    ../clib/microlib/longlong.c              0x00000000   Number         0  llshl.o ABSOLUTE
    ../clib/microlib/malloc/malloc.c         0x00000000   Number         0  malloc.o ABSOLUTE
    ../clib/microlib/malloc/malloc.c         0x00000000   Number         0  mallocr.o ABSOLUTE
    ../clib/microlib/malloc/malloc.c         0x00000000   Number         0  mallocra.o ABSOLUTE
    ../clib/microlib/malloc/malloc.c         0x00000000   Number         0  malloca.o ABSOLUTE
    ../clib/microlib/malloc/mvars.c          0x00000000   Number         0  mvars.o ABSOLUTE
    ../clib/microlib/printf/printf.c         0x00000000   Number         0  printfb.o ABSOLUTE
    ../clib/microlib/printf/printf.c         0x00000000   Number         0  printf0.o ABSOLUTE
    ../clib/microlib/printf/printf.c         0x00000000   Number         0  printf1.o ABSOLUTE
    ../clib/microlib/printf/printf.c         0x00000000   Number         0  printf2.o ABSOLUTE
    ../clib/microlib/printf/printf.c         0x00000000   Number         0  printf3.o ABSOLUTE
    ../clib/microlib/printf/printf.c         0x00000000   Number         0  printf5.o ABSOLUTE
    ../clib/microlib/printf/printf.c         0x00000000   Number         0  printf6.o ABSOLUTE
    ../clib/microlib/printf/printf.c         0x00000000   Number         0  printf7.o ABSOLUTE
    ../clib/microlib/printf/printf.c         0x00000000   Number         0  printf8.o ABSOLUTE
    ../clib/microlib/printf/printf.c         0x00000000   Number         0  printfa.o ABSOLUTE
    ../clib/microlib/printf/printf.c         0x00000000   Number         0  printf4.o ABSOLUTE
    ../clib/microlib/printf/stubs.s          0x00000000   Number         0  stubs.o ABSOLUTE
    ../clib/microlib/stdlib/rand.c           0x00000000   Number         0  rand.o ABSOLUTE
    ../clib/microlib/string/memcmp.c         0x00000000   Number         0  memcmp.o ABSOLUTE
    ../clib/microlib/string/memcpy.c         0x00000000   Number         0  memcpyb.o ABSOLUTE
    ../clib/microlib/string/memcpy.c         0x00000000   Number         0  memcpya.o ABSOLUTE
    ../clib/microlib/string/memset.c         0x00000000   Number         0  memseta.o ABSOLUTE
    ../clib/microlib/stubs.s                 0x00000000   Number         0  iusefp.o ABSOLUTE
    ../fplib/microlib/d2f.c                  0x00000000   Number         0  d2f.o ABSOLUTE
    ../fplib/microlib/f2d.c                  0x00000000   Number         0  f2d.o ABSOLUTE
    ../fplib/microlib/fpadd.c                0x00000000   Number         0  fadd.o ABSOLUTE
    ../fplib/microlib/fpadd.c                0x00000000   Number         0  dadd.o ABSOLUTE
    ../fplib/microlib/fpdiv.c                0x00000000   Number         0  fdiv.o ABSOLUTE
    ../fplib/microlib/fpdiv.c                0x00000000   Number         0  ddiv.o ABSOLUTE
    ../fplib/microlib/fpepilogue.c           0x00000000   Number         0  depilogue.o ABSOLUTE
    ../fplib/microlib/fpepilogue.c           0x00000000   Number         0  fepilogue.o ABSOLUTE
    ../fplib/microlib/fpfix.c                0x00000000   Number         0  ffixui.o ABSOLUTE
    ../fplib/microlib/fpfix.c                0x00000000   Number         0  dfixul.o ABSOLUTE
    ../fplib/microlib/fpflt.c                0x00000000   Number         0  fflti.o ABSOLUTE
    ../fplib/microlib/fpflt.c                0x00000000   Number         0  dfltui.o ABSOLUTE
    ../fplib/microlib/fpflt.c                0x00000000   Number         0  ffltui.o ABSOLUTE
    ../fplib/microlib/fpflt.c                0x00000000   Number         0  dfltul.o ABSOLUTE
    ../fplib/microlib/fpmul.c                0x00000000   Number         0  fmul.o ABSOLUTE
    ../fplib/microlib/fpmul.c                0x00000000   Number         0  dmul.o ABSOLUTE
    ..\\bsp\\bsp_buzzer.c                    0x00000000   Number         0  bsp_buzzer.o ABSOLUTE
    ..\\bsp\\bsp_frame.c                     0x00000000   Number         0  bsp_frame.o ABSOLUTE
    ..\\bsp\\bsp_init.c                      0x00000000   Number         0  bsp_init.o ABSOLUTE
    ..\\bsp\\bsp_key.c                       0x00000000   Number         0  bsp_key.o ABSOLUTE
    ..\\bsp\\bsp_led.c                       0x00000000   Number         0  bsp_led.o ABSOLUTE
    ..\\bsp\\bsp_relay.c                     0x00000000   Number         0  bsp_relay.o ABSOLUTE
    ..\\bsp\\bsp_timer.c                     0x00000000   Number         0  bsp_timer.o ABSOLUTE
    ..\\bsp\\bsp_tm1650.c                    0x00000000   Number         0  bsp_tm1650.o ABSOLUTE
    ..\\bsp\\bsp_usart.c                     0x00000000   Number         0  bsp_usart.o ABSOLUTE
    ..\\firmware\\CMSIS\\device\\system_n32wb03x.c 0x00000000   Number         0  system_n32wb03x.o ABSOLUTE
    ..\\firmware\\n32wb03x_std_periph_driver\\src\\misc.c 0x00000000   Number         0  misc.o ABSOLUTE
    ..\\firmware\\n32wb03x_std_periph_driver\\src\\n32wb03x_adc.c 0x00000000   Number         0  n32wb03x_adc.o ABSOLUTE
    ..\\firmware\\n32wb03x_std_periph_driver\\src\\n32wb03x_crc.c 0x00000000   Number         0  n32wb03x_crc.o ABSOLUTE
    ..\\firmware\\n32wb03x_std_periph_driver\\src\\n32wb03x_dma.c 0x00000000   Number         0  n32wb03x_dma.o ABSOLUTE
    ..\\firmware\\n32wb03x_std_periph_driver\\src\\n32wb03x_exti.c 0x00000000   Number         0  n32wb03x_exti.o ABSOLUTE
    ..\\firmware\\n32wb03x_std_periph_driver\\src\\n32wb03x_gpio.c 0x00000000   Number         0  n32wb03x_gpio.o ABSOLUTE
    ..\\firmware\\n32wb03x_std_periph_driver\\src\\n32wb03x_lpuart.c 0x00000000   Number         0  n32wb03x_lpuart.o ABSOLUTE
    ..\\firmware\\n32wb03x_std_periph_driver\\src\\n32wb03x_qflash.c 0x00000000   Number         0  n32wb03x_qflash.o ABSOLUTE
    ..\\firmware\\n32wb03x_std_periph_driver\\src\\n32wb03x_rcc.c 0x00000000   Number         0  n32wb03x_rcc.o ABSOLUTE
    ..\\firmware\\n32wb03x_std_periph_driver\\src\\n32wb03x_spi.c 0x00000000   Number         0  n32wb03x_spi.o ABSOLUTE
    ..\\firmware\\n32wb03x_std_periph_driver\\src\\n32wb03x_tim.c 0x00000000   Number         0  n32wb03x_tim.o ABSOLUTE
    ..\\firmware\\n32wb03x_std_periph_driver\\src\\n32wb03x_usart.c 0x00000000   Number         0  n32wb03x_usart.o ABSOLUTE
    ..\\middlewares\\Nationstech\\ble_library\\ns_ble_profile\\bas\\bass\\src\\bass.c 0x00000000   Number         0  bass.o ABSOLUTE
    ..\\middlewares\\Nationstech\\ble_library\\ns_ble_profile\\bas\\bass\\src\\bass_task.c 0x00000000   Number         0  bass_task.o ABSOLUTE
    ..\\middlewares\\Nationstech\\ble_library\\ns_ble_profile\\dis\\diss\\src\\diss.c 0x00000000   Number         0  diss.o ABSOLUTE
    ..\\middlewares\\Nationstech\\ble_library\\ns_ble_profile\\dis\\diss\\src\\diss_task.c 0x00000000   Number         0  diss_task.o ABSOLUTE
    ..\\middlewares\\Nationstech\\ble_library\\ns_ble_profile\\prf.c 0x00000000   Number         0  prf.o ABSOLUTE
    ..\\middlewares\\Nationstech\\ble_library\\ns_ble_profile\\prf_utils.c 0x00000000   Number         0  prf_utils.o ABSOLUTE
    ..\\middlewares\\Nationstech\\ble_library\\ns_ble_profile\\rdts\\rdts_common.c 0x00000000   Number         0  rdts_common.o ABSOLUTE
    ..\\middlewares\\Nationstech\\ble_library\\ns_ble_profile\\rdts\\rdtss\\src\\rdtss.c 0x00000000   Number         0  rdtss.o ABSOLUTE
    ..\\middlewares\\Nationstech\\ble_library\\ns_ble_profile\\rdts\\rdtss\\src\\rdtss_task.c 0x00000000   Number         0  rdtss_task.o ABSOLUTE
    ..\\middlewares\\Nationstech\\ble_library\\ns_ble_stack\\ip\\ble\\hl\\src\\att\\lib_att.c 0x00000000   Number         0  lib_att.o ABSOLUTE
    ..\\middlewares\\Nationstech\\ble_library\\ns_ble_stack\\stack_common\\rwip.c 0x00000000   Number         0  rwip.o ABSOLUTE
    ..\\middlewares\\Nationstech\\ble_library\\ns_ble_stack\\stack_common\\rwip_driver.c 0x00000000   Number         0  rwip_driver.o ABSOLUTE
    ..\\middlewares\\Nationstech\\ble_library\\ns_library\\ble\\ns_ble.c 0x00000000   Number         0  ns_ble.o ABSOLUTE
    ..\\middlewares\\Nationstech\\ble_library\\ns_library\\ble\\ns_ble_task.c 0x00000000   Number         0  ns_ble_task.o ABSOLUTE
    ..\\middlewares\\Nationstech\\ble_library\\ns_library\\log\\ns_log_lpuart.c 0x00000000   Number         0  ns_log_lpuart.o ABSOLUTE
    ..\\middlewares\\Nationstech\\ble_library\\ns_library\\sec\\ns_sec.c 0x00000000   Number         0  ns_sec.o ABSOLUTE
    ..\\middlewares\\Nationstech\\ble_library\\ns_library\\sleep\\ns_sleep.c 0x00000000   Number         0  ns_sleep.o ABSOLUTE
    ..\\middlewares\\Nationstech\\ble_library\\ns_library\\timer\\ns_timer.c 0x00000000   Number         0  ns_timer.o ABSOLUTE
    ..\\src\\app_ble.c                       0x00000000   Number         0  app_ble.o ABSOLUTE
    ..\\src\\app_profile\\app_batt.c         0x00000000   Number         0  app_batt.o ABSOLUTE
    ..\\src\\app_profile\\app_dis.c          0x00000000   Number         0  app_dis.o ABSOLUTE
    ..\\src\\app_profile\\app_rdtss.c        0x00000000   Number         0  app_rdtss.o ABSOLUTE
    ..\\src\\main.c                          0x00000000   Number         0  main.o ABSOLUTE
    ..\bsp\bsp_buzzer.c                      0x00000000   Number         0  bsp_buzzer.o ABSOLUTE
    ..\bsp\bsp_frame.c                       0x00000000   Number         0  bsp_frame.o ABSOLUTE
    ..\bsp\bsp_init.c                        0x00000000   Number         0  bsp_init.o ABSOLUTE
    ..\bsp\bsp_key.c                         0x00000000   Number         0  bsp_key.o ABSOLUTE
    ..\bsp\bsp_led.c                         0x00000000   Number         0  bsp_led.o ABSOLUTE
    ..\bsp\bsp_relay.c                       0x00000000   Number         0  bsp_relay.o ABSOLUTE
    ..\bsp\bsp_timer.c                       0x00000000   Number         0  bsp_timer.o ABSOLUTE
    ..\bsp\bsp_tm1650.c                      0x00000000   Number         0  bsp_tm1650.o ABSOLUTE
    ..\bsp\bsp_usart.c                       0x00000000   Number         0  bsp_usart.o ABSOLUTE
    ..\firmware\CMSIS\device\startup\startup_n32wb03x.s 0x00000000   Number         0  startup_n32wb03x.o ABSOLUTE
    ..\firmware\CMSIS\device\system_n32wb03x.c 0x00000000   Number         0  system_n32wb03x.o ABSOLUTE
    ..\firmware\n32wb03x_std_periph_driver\src\misc.c 0x00000000   Number         0  misc.o ABSOLUTE
    ..\firmware\n32wb03x_std_periph_driver\src\n32wb03x_adc.c 0x00000000   Number         0  n32wb03x_adc.o ABSOLUTE
    ..\firmware\n32wb03x_std_periph_driver\src\n32wb03x_crc.c 0x00000000   Number         0  n32wb03x_crc.o ABSOLUTE
    ..\firmware\n32wb03x_std_periph_driver\src\n32wb03x_dma.c 0x00000000   Number         0  n32wb03x_dma.o ABSOLUTE
    ..\firmware\n32wb03x_std_periph_driver\src\n32wb03x_exti.c 0x00000000   Number         0  n32wb03x_exti.o ABSOLUTE
    ..\firmware\n32wb03x_std_periph_driver\src\n32wb03x_gpio.c 0x00000000   Number         0  n32wb03x_gpio.o ABSOLUTE
    ..\firmware\n32wb03x_std_periph_driver\src\n32wb03x_lpuart.c 0x00000000   Number         0  n32wb03x_lpuart.o ABSOLUTE
    ..\firmware\n32wb03x_std_periph_driver\src\n32wb03x_qflash.c 0x00000000   Number         0  n32wb03x_qflash.o ABSOLUTE
    ..\firmware\n32wb03x_std_periph_driver\src\n32wb03x_rcc.c 0x00000000   Number         0  n32wb03x_rcc.o ABSOLUTE
    ..\firmware\n32wb03x_std_periph_driver\src\n32wb03x_spi.c 0x00000000   Number         0  n32wb03x_spi.o ABSOLUTE
    ..\firmware\n32wb03x_std_periph_driver\src\n32wb03x_tim.c 0x00000000   Number         0  n32wb03x_tim.o ABSOLUTE
    ..\firmware\n32wb03x_std_periph_driver\src\n32wb03x_usart.c 0x00000000   Number         0  n32wb03x_usart.o ABSOLUTE
    ..\middlewares\Nationstech\ble_library\ns_ble_profile\bas\bass\src\bass.c 0x00000000   Number         0  bass.o ABSOLUTE
    ..\middlewares\Nationstech\ble_library\ns_ble_profile\bas\bass\src\bass_task.c 0x00000000   Number         0  bass_task.o ABSOLUTE
    ..\middlewares\Nationstech\ble_library\ns_ble_profile\dis\diss\src\diss.c 0x00000000   Number         0  diss.o ABSOLUTE
    ..\middlewares\Nationstech\ble_library\ns_ble_profile\dis\diss\src\diss_task.c 0x00000000   Number         0  diss_task.o ABSOLUTE
    ..\middlewares\Nationstech\ble_library\ns_ble_profile\prf.c 0x00000000   Number         0  prf.o ABSOLUTE
    ..\middlewares\Nationstech\ble_library\ns_ble_profile\prf_utils.c 0x00000000   Number         0  prf_utils.o ABSOLUTE
    ..\middlewares\Nationstech\ble_library\ns_ble_profile\rdts\rdts_common.c 0x00000000   Number         0  rdts_common.o ABSOLUTE
    ..\middlewares\Nationstech\ble_library\ns_ble_profile\rdts\rdtss\src\rdtss.c 0x00000000   Number         0  rdtss.o ABSOLUTE
    ..\middlewares\Nationstech\ble_library\ns_ble_profile\rdts\rdtss\src\rdtss_task.c 0x00000000   Number         0  rdtss_task.o ABSOLUTE
    ..\middlewares\Nationstech\ble_library\ns_ble_stack\ip\ble\hl\src\att\lib_att.c 0x00000000   Number         0  lib_att.o ABSOLUTE
    ..\middlewares\Nationstech\ble_library\ns_ble_stack\stack_common\rwip.c 0x00000000   Number         0  rwip.o ABSOLUTE
    ..\middlewares\Nationstech\ble_library\ns_ble_stack\stack_common\rwip_driver.c 0x00000000   Number         0  rwip_driver.o ABSOLUTE
    ..\middlewares\Nationstech\ble_library\ns_library\ble\ns_ble.c 0x00000000   Number         0  ns_ble.o ABSOLUTE
    ..\middlewares\Nationstech\ble_library\ns_library\ble\ns_ble_task.c 0x00000000   Number         0  ns_ble_task.o ABSOLUTE
    ..\middlewares\Nationstech\ble_library\ns_library\error\ns_error.c 0x00000000   Number         0  ns_error.o ABSOLUTE
    ..\middlewares\Nationstech\ble_library\ns_library\log\ns_log_lpuart.c 0x00000000   Number         0  ns_log_lpuart.o ABSOLUTE
    ..\middlewares\Nationstech\ble_library\ns_library\sec\ns_sec.c 0x00000000   Number         0  ns_sec.o ABSOLUTE
    ..\middlewares\Nationstech\ble_library\ns_library\sleep\ns_sleep.c 0x00000000   Number         0  ns_sleep.o ABSOLUTE
    ..\middlewares\Nationstech\ble_library\ns_library\timer\ns_timer.c 0x00000000   Number         0  ns_timer.o ABSOLUTE
    ..\src\app_ble.c                         0x00000000   Number         0  app_ble.o ABSOLUTE
    ..\src\app_profile\app_batt.c            0x00000000   Number         0  app_batt.o ABSOLUTE
    ..\src\app_profile\app_dis.c             0x00000000   Number         0  app_dis.o ABSOLUTE
    ..\src\app_profile\app_rdtss.c           0x00000000   Number         0  app_rdtss.o ABSOLUTE
    ..\src\main.c                            0x00000000   Number         0  main.o ABSOLUTE
    ..\src\utils\fifo.c                      0x00000000   Number         0  fifo.o ABSOLUTE
    cdrcmple.s                               0x00000000   Number         0  cdrcmple.o ABSOLUTE
    dc.s                                     0x00000000   Number         0  dc.o ABSOLUTE
    init.s                                   0x00000000   Number         0  init.o ABSOLUTE
    RESET                                    0x01000000   Section      192  startup_n32wb03x.o(RESET)
    .ARM.Collect$$$$00000000                 0x010000c0   Section        0  entry.o(.ARM.Collect$$$$00000000)
    .ARM.Collect$$$$00000001                 0x010000c0   Section        4  entry2.o(.ARM.Collect$$$$00000001)
    .ARM.Collect$$$$00000004                 0x010000c4   Section        4  entry5.o(.ARM.Collect$$$$00000004)
    .ARM.Collect$$$$00000008                 0x010000c8   Section        0  entry7b.o(.ARM.Collect$$$$00000008)
    .ARM.Collect$$$$0000000A                 0x010000c8   Section        0  entry8b.o(.ARM.Collect$$$$0000000A)
    .ARM.Collect$$$$0000000B                 0x010000c8   Section        8  entry9a.o(.ARM.Collect$$$$0000000B)
    .ARM.Collect$$$$0000000D                 0x010000d0   Section        0  entry10a.o(.ARM.Collect$$$$0000000D)
    .ARM.Collect$$$$0000000F                 0x010000d0   Section        0  entry11a.o(.ARM.Collect$$$$0000000F)
    .ARM.Collect$$$$00002712                 0x010000d0   Section        4  entry2.o(.ARM.Collect$$$$00002712)
    __lit__00000000                          0x010000d0   Data           4  entry2.o(.ARM.Collect$$$$00002712)
    .emb_text                                0x010000d4   Section       14  system_n32wb03x.o(.emb_text)
    .text                                    0x010000e4   Section       28  startup_n32wb03x.o(.text)
    .text                                    0x01000100   Section        0  uidiv.o(.text)
    .text                                    0x0100012c   Section        0  uldiv.o(.text)
    .text                                    0x0100018c   Section        0  rand.o(.text)
    .text                                    0x010001b0   Section        0  memcpya.o(.text)
    .text                                    0x010001d4   Section        0  memseta.o(.text)
    .text                                    0x010001f8   Section        0  memcmp.o(.text)
    .text                                    0x01000214   Section        0  dmul.o(.text)
    .text                                    0x010002e4   Section        0  ddiv.o(.text)
    .text                                    0x010003d4   Section        0  dfltui.o(.text)
    .text                                    0x010003f0   Section        0  dfltul.o(.text)
    .text                                    0x0100040c   Section        0  dfixul.o(.text)
    .text                                    0x0100044c   Section        0  llshl.o(.text)
    .text                                    0x0100046c   Section        0  llushr.o(.text)
    .text                                    0x0100048e   Section        0  iusefp.o(.text)
    .text                                    0x0100048e   Section        0  depilogue.o(.text)
    .text                                    0x0100054c   Section       36  init.o(.text)
    .text                                    0x01000570   Section        0  __dclz77c.o(.text)
    i.BuzzerInit                             0x01000648   Section        0  bsp_buzzer.o(i.BuzzerInit)
    i.BuzzerOff                              0x0100069c   Section        0  bsp_buzzer.o(i.BuzzerOff)
    i.BuzzerOn                               0x010006a4   Section        0  bsp_buzzer.o(i.BuzzerOn)
    i.CRC16_CalcBufCrc                       0x010006ac   Section        0  n32wb03x_crc.o(i.CRC16_CalcBufCrc)
    i.DMA_Channel1_2_3_4_IRQHandler          0x010006cc   Section        0  bsp_usart.o(i.DMA_Channel1_2_3_4_IRQHandler)
    i.DMA_ClearFlag                          0x01000734   Section        0  n32wb03x_dma.o(i.DMA_ClearFlag)
    i.DMA_EnableChannel                      0x01000738   Section        0  n32wb03x_dma.o(i.DMA_EnableChannel)
    i.DMA_GetCurrDataCounter                 0x01000750   Section        0  n32wb03x_dma.o(i.DMA_GetCurrDataCounter)
    i.DMA_GetFlagStatus                      0x01000756   Section        0  n32wb03x_dma.o(i.DMA_GetFlagStatus)
    i.DMA_Init                               0x01000764   Section        0  n32wb03x_dma.o(i.DMA_Init)
    i.EXTI_ClrITPendBit                      0x010007a4   Section        0  n32wb03x_exti.o(i.EXTI_ClrITPendBit)
    i.EXTI_GetITStatus                       0x010007b0   Section        0  n32wb03x_exti.o(i.EXTI_GetITStatus)
    i.EXTI_InitPeripheral                    0x010007cc   Section        0  n32wb03x_exti.o(i.EXTI_InitPeripheral)
    i.GPIO_InitPeripheral                    0x0100083c   Section        0  n32wb03x_gpio.o(i.GPIO_InitPeripheral)
    i.GPIO_InitStruct                        0x010008f4   Section        0  n32wb03x_gpio.o(i.GPIO_InitStruct)
    i.GPIO_ResetBits                         0x01000910   Section        0  n32wb03x_gpio.o(i.GPIO_ResetBits)
    i.GPIO_SetBits                           0x01000914   Section        0  n32wb03x_gpio.o(i.GPIO_SetBits)
    i.GPIO_TogglePin                         0x01000918   Section        0  n32wb03x_gpio.o(i.GPIO_TogglePin)
    i.LPUART_ClrFlag                         0x01000920   Section        0  n32wb03x_lpuart.o(i.LPUART_ClrFlag)
    i.LPUART_DeInit                          0x01000924   Section        0  n32wb03x_lpuart.o(i.LPUART_DeInit)
    i.LPUART_GetFlagStatus                   0x01000944   Section        0  n32wb03x_lpuart.o(i.LPUART_GetFlagStatus)
    i.LPUART_Init                            0x01000954   Section        0  n32wb03x_lpuart.o(i.LPUART_Init)
    i.LPUART_SendData                        0x01000a24   Section        0  n32wb03x_lpuart.o(i.LPUART_SendData)
    i.LedBlink                               0x01000a28   Section        0  bsp_led.o(i.LedBlink)
    i.LedInitSingle                          0x01000a30   Section        0  bsp_led.o(i.LedInitSingle)
    i.LedOff                                 0x01000a84   Section        0  bsp_led.o(i.LedOff)
    i.LedOn                                  0x01000a8c   Section        0  bsp_led.o(i.LedOn)
    i.Led_Init                               0x01000a94   Section        0  bsp_led.o(i.Led_Init)
    i.OTPTrim_Read                           0x01000abc   Section        0  system_n32wb03x.o(i.OTPTrim_Read)
    i.Qflash_Erase_Sector                    0x01000b88   Section        0  n32wb03x_qflash.o(i.Qflash_Erase_Sector)
    i.Qflash_Init                            0x01000bac   Section        0  n32wb03x_qflash.o(i.Qflash_Init)
    i.Qflash_Write                           0x01000be4   Section        0  n32wb03x_qflash.o(i.Qflash_Write)
    i.RCC_ConfigLpuartClk                    0x01000c08   Section        0  n32wb03x_rcc.o(i.RCC_ConfigLpuartClk)
    i.RCC_EnableAHBPeriphClk                 0x01000c24   Section        0  n32wb03x_rcc.o(i.RCC_EnableAHBPeriphClk)
    i.RCC_EnableAPB2PeriphClk                0x01000c3c   Section        0  n32wb03x_rcc.o(i.RCC_EnableAPB2PeriphClk)
    i.RCC_EnableLpuartClk                    0x01000c54   Section        0  n32wb03x_rcc.o(i.RCC_EnableLpuartClk)
    i.RCC_GetClocksFreqValue                 0x01000c6c   Section        0  n32wb03x_rcc.o(i.RCC_GetClocksFreqValue)
    i.RCC_GetLpuartClkSrc                    0x01000ce0   Section        0  n32wb03x_rcc.o(i.RCC_GetLpuartClkSrc)
    i.RelayInit                              0x01000cf4   Section        0  bsp_relay.o(i.RelayInit)
    i.RelayOff                               0x01000d48   Section        0  bsp_relay.o(i.RelayOff)
    i.RelayOn                                0x01000d50   Section        0  bsp_relay.o(i.RelayOn)
    i.SysTick_Handler                        0x01000d58   Section        0  bsp_timer.o(i.SysTick_Handler)
    i.SystemCoreClockUpdate                  0x01000d68   Section        0  system_n32wb03x.o(i.SystemCoreClockUpdate)
    i.SystemGetMacAddr                       0x01000d78   Section        0  system_n32wb03x.o(i.SystemGetMacAddr)
    i.SystemInit                             0x01000dac   Section        0  system_n32wb03x.o(i.SystemInit)
    i.TM1650_DisplayInt                      0x01000f2c   Section        0  bsp_tm1650.o(i.TM1650_DisplayInt)
    i.TM1650_DisplayTime                     0x01000f94   Section        0  bsp_tm1650.o(i.TM1650_DisplayTime)
    i.TM1650_Init                            0x01000fe4   Section        0  bsp_tm1650.o(i.TM1650_Init)
    i.TM1650_SetDisplay                      0x0100102c   Section        0  bsp_tm1650.o(i.TM1650_SetDisplay)
    i.TM1650_WriteByte                       0x010010bc   Section        0  bsp_tm1650.o(i.TM1650_WriteByte)
    TM1650_WriteByte                         0x010010bd   Thumb Code   128  bsp_tm1650.o(i.TM1650_WriteByte)
    i.TM1650_WriteData                       0x01001140   Section        0  bsp_tm1650.o(i.TM1650_WriteData)
    i.USART1_IRQHandler                      0x010011c8   Section        0  bsp_usart.o(i.USART1_IRQHandler)
    i.USART_GetFlagStatus                    0x010011e4   Section        0  n32wb03x_usart.o(i.USART_GetFlagStatus)
    i.__0printf$8                            0x010011f4   Section        0  printf8.o(i.__0printf$8)
    i.__ARM_clz                              0x01001214   Section        0  depilogue.o(i.__ARM_clz)
    i._printf_core                           0x01001244   Section        0  printf8.o(i._printf_core)
    _printf_core                             0x01001245   Thumb Code  1020  printf8.o(i._printf_core)
    i._printf_post_padding                   0x0100166c   Section        0  printf8.o(i._printf_post_padding)
    _printf_post_padding                     0x0100166d   Thumb Code    32  printf8.o(i._printf_post_padding)
    i._printf_pre_padding                    0x0100168c   Section        0  printf8.o(i._printf_pre_padding)
    _printf_pre_padding                      0x0100168d   Thumb Code    44  printf8.o(i._printf_pre_padding)
    i.app_ble_adv_init                       0x010016b8   Section        0  app_ble.o(i.app_ble_adv_init)
    i.app_ble_adv_msg_handler                0x0100172c   Section        0  app_ble.o(i.app_ble_adv_msg_handler)
    i.app_ble_gap_params_init                0x01001730   Section        0  app_ble.o(i.app_ble_gap_params_init)
    i.app_ble_init                           0x010017c0   Section        0  app_ble.o(i.app_ble_init)
    i.app_ble_msg_handler                    0x0100180c   Section        0  app_ble.o(i.app_ble_msg_handler)
    i.app_ble_sec_init                       0x01001860   Section        0  app_ble.o(i.app_ble_sec_init)
    i.app_conn_params_update_evt_handler     0x010018b0   Section        0  ns_ble_task.o(i.app_conn_params_update_evt_handler)
    app_conn_params_update_evt_handler       0x010018b1   Thumb Code    12  ns_ble_task.o(i.app_conn_params_update_evt_handler)
    i.app_create_advertising                 0x010018c0   Section        0  ns_ble.o(i.app_create_advertising)
    app_create_advertising                   0x010018c1   Thumb Code   192  ns_ble.o(i.app_create_advertising)
    i.app_dis_add_dis                        0x0100198c   Section        0  app_dis.o(i.app_dis_add_dis)
    i.app_entry_point_handler                0x010019e8   Section        0  ns_ble_task.o(i.app_entry_point_handler)
    i.app_init_timeout_evt_handler           0x01001aec   Section        0  ns_ble_task.o(i.app_init_timeout_evt_handler)
    app_init_timeout_evt_handler             0x01001aed   Thumb Code    22  ns_ble_task.o(i.app_init_timeout_evt_handler)
    i.app_lsi_calib_evt_handler              0x01001b08   Section        0  ns_ble_task.o(i.app_lsi_calib_evt_handler)
    app_lsi_calib_evt_handler                0x01001b09   Thumb Code   140  ns_ble_task.o(i.app_lsi_calib_evt_handler)
    i.app_rdtss_add_rdts                     0x01001bb4   Section        0  app_rdtss.o(i.app_rdtss_add_rdts)
    i.app_recv_data_fifo_enter               0x01001c1c   Section        0  bsp_frame.o(i.app_recv_data_fifo_enter)
    i.app_sec_msg_dflt_handler               0x01001c70   Section        0  ns_sec.o(i.app_sec_msg_dflt_handler)
    app_sec_msg_dflt_handler                 0x01001c71   Thumb Code     4  ns_sec.o(i.app_sec_msg_dflt_handler)
    i.app_set_adv_data                       0x01001c74   Section        0  ns_ble.o(i.app_set_adv_data)
    app_set_adv_data                         0x01001c75   Thumb Code   100  ns_ble.o(i.app_set_adv_data)
    i.app_set_scan_rsp_data                  0x01001cec   Section        0  ns_ble.o(i.app_set_scan_rsp_data)
    app_set_scan_rsp_data                    0x01001ced   Thumb Code   172  ns_ble.o(i.app_set_scan_rsp_data)
    i.app_start_advertising                  0x01001db0   Section        0  ns_ble.o(i.app_start_advertising)
    app_start_advertising                    0x01001db1   Thumb Code   100  ns_ble.o(i.app_start_advertising)
    i.app_usart_rx_data_fifo_enter           0x01001e20   Section        0  bsp_usart.o(i.app_usart_rx_data_fifo_enter)
    i.app_usart_tx_process                   0x01001ecc   Section        0  bsp_usart.o(i.app_usart_tx_process)
    i.app_user_msg_handler                   0x01001f10   Section        0  app_ble.o(i.app_user_msg_handler)
    i.attm_att_set_value                     0x01001f24   Section        0  lib_att.o(i.attm_att_set_value)
    i.ble_rx_msg                             0x01001fe4   Section        0  bsp_frame.o(i.ble_rx_msg)
    i.bsp_create_frame                       0x01002198   Section        0  bsp_frame.o(i.bsp_create_frame)
    i.bsp_init                               0x010021d4   Section        0  bsp_init.o(i.bsp_init)
    i.check_client_char_cfg                  0x01002208   Section        0  rdts_common.o(i.check_client_char_cfg)
    i.diss_check_val_len                     0x01002232   Section        0  diss.o(i.diss_check_val_len)
    i.diss_cleanup                           0x0100225c   Section        0  diss.o(i.diss_cleanup)
    diss_cleanup                             0x0100225d   Thumb Code     2  diss.o(i.diss_cleanup)
    i.diss_create                            0x0100225e   Section        0  diss.o(i.diss_create)
    diss_create                              0x0100225f   Thumb Code     2  diss.o(i.diss_create)
    i.diss_destroy                           0x01002260   Section        0  diss.o(i.diss_destroy)
    diss_destroy                             0x01002261   Thumb Code    62  diss.o(i.diss_destroy)
    i.diss_handle_to_value                   0x0100229e   Section        0  diss.o(i.diss_handle_to_value)
    i.diss_init                              0x010022d4   Section        0  diss.o(i.diss_init)
    diss_init                                0x010022d5   Thumb Code   152  diss.o(i.diss_init)
    i.diss_prf_itf_get                       0x01002374   Section        0  diss.o(i.diss_prf_itf_get)
    i.diss_set_value_req_handler             0x0100237c   Section        0  diss_task.o(i.diss_set_value_req_handler)
    diss_set_value_req_handler               0x0100237d   Thumb Code   152  diss_task.o(i.diss_set_value_req_handler)
    i.diss_task_init                         0x01002418   Section        0  diss_task.o(i.diss_task_init)
    i.diss_value_cfm_handler                 0x01002438   Section        0  diss_task.o(i.diss_value_cfm_handler)
    diss_value_cfm_handler                   0x01002439   Thumb Code   120  diss_task.o(i.diss_value_cfm_handler)
    i.diss_value_req_ind_handler             0x010024b4   Section        0  app_dis.o(i.diss_value_req_ind_handler)
    diss_value_req_ind_handler               0x010024b5   Thumb Code   118  app_dis.o(i.diss_value_req_ind_handler)
    i.diss_value_to_handle                   0x01002574   Section        0  diss.o(i.diss_value_to_handle)
    i.fputc                                  0x010025b0   Section        0  ns_log_lpuart.o(i.fputc)
    i.free                                   0x010025f0   Section        0  malloc.o(i.free)
    i.gapc_bond_ind_handler                  0x01002644   Section        0  ns_sec.o(i.gapc_bond_ind_handler)
    gapc_bond_ind_handler                    0x01002645   Thumb Code   206  ns_sec.o(i.gapc_bond_ind_handler)
    i.gapc_bond_req_ind_handler              0x01002734   Section        0  ns_sec.o(i.gapc_bond_req_ind_handler)
    gapc_bond_req_ind_handler                0x01002735   Thumb Code   478  ns_sec.o(i.gapc_bond_req_ind_handler)
    i.gapc_cmp_evt_handler                   0x0100293c   Section        0  ns_ble_task.o(i.gapc_cmp_evt_handler)
    gapc_cmp_evt_handler                     0x0100293d   Thumb Code    36  ns_ble_task.o(i.gapc_cmp_evt_handler)
    i.gapc_conn_rssi_ind_handler             0x01002964   Section        0  ns_ble_task.o(i.gapc_conn_rssi_ind_handler)
    gapc_conn_rssi_ind_handler               0x01002965   Thumb Code    92  ns_ble_task.o(i.gapc_conn_rssi_ind_handler)
    i.gapc_connection_req_ind_handler        0x010029d0   Section        0  ns_ble_task.o(i.gapc_connection_req_ind_handler)
    gapc_connection_req_ind_handler          0x010029d1   Thumb Code   322  ns_ble_task.o(i.gapc_connection_req_ind_handler)
    i.gapc_disconnect_ind_handler            0x01002b50   Section        0  ns_ble_task.o(i.gapc_disconnect_ind_handler)
    gapc_disconnect_ind_handler              0x01002b51   Thumb Code    98  ns_ble_task.o(i.gapc_disconnect_ind_handler)
    i.gapc_encrypt_ind_handler               0x01002be8   Section        0  ns_sec.o(i.gapc_encrypt_ind_handler)
    gapc_encrypt_ind_handler                 0x01002be9   Thumb Code    34  ns_sec.o(i.gapc_encrypt_ind_handler)
    i.gapc_encrypt_req_ind_handler           0x01002c10   Section        0  ns_sec.o(i.gapc_encrypt_req_ind_handler)
    gapc_encrypt_req_ind_handler             0x01002c11   Thumb Code   286  ns_sec.o(i.gapc_encrypt_req_ind_handler)
    i.gapc_get_dev_info_req_ind_handler      0x01002d60   Section        0  ns_ble_task.o(i.gapc_get_dev_info_req_ind_handler)
    gapc_get_dev_info_req_ind_handler        0x01002d61   Thumb Code   116  ns_ble_task.o(i.gapc_get_dev_info_req_ind_handler)
    i.gapc_le_phy_ind_handler                0x01002de0   Section        0  ns_ble_task.o(i.gapc_le_phy_ind_handler)
    gapc_le_phy_ind_handler                  0x01002de1   Thumb Code    24  ns_ble_task.o(i.gapc_le_phy_ind_handler)
    i.gapc_le_pkt_size_ind_handler           0x01002e10   Section        0  ns_ble_task.o(i.gapc_le_pkt_size_ind_handler)
    gapc_le_pkt_size_ind_handler             0x01002e11   Thumb Code    22  ns_ble_task.o(i.gapc_le_pkt_size_ind_handler)
    i.gapc_param_update_req_ind_handler      0x01002e2c   Section        0  ns_ble_task.o(i.gapc_param_update_req_ind_handler)
    gapc_param_update_req_ind_handler        0x01002e2d   Thumb Code    94  ns_ble_task.o(i.gapc_param_update_req_ind_handler)
    i.gapc_param_updated_ind_handler         0x01002e90   Section        0  ns_ble_task.o(i.gapc_param_updated_ind_handler)
    gapc_param_updated_ind_handler           0x01002e91   Thumb Code    36  ns_ble_task.o(i.gapc_param_updated_ind_handler)
    i.gapc_set_dev_info_req_ind_handler      0x01002eb8   Section        0  ns_ble_task.o(i.gapc_set_dev_info_req_ind_handler)
    gapc_set_dev_info_req_ind_handler        0x01002eb9   Thumb Code    52  ns_ble_task.o(i.gapc_set_dev_info_req_ind_handler)
    i.gapm_activity_created_ind_handler      0x01002ef8   Section        0  ns_ble_task.o(i.gapm_activity_created_ind_handler)
    gapm_activity_created_ind_handler        0x01002ef9   Thumb Code    46  ns_ble_task.o(i.gapm_activity_created_ind_handler)
    i.gapm_activity_stopped_ind_handler      0x01002f2c   Section        0  ns_ble_task.o(i.gapm_activity_stopped_ind_handler)
    gapm_activity_stopped_ind_handler        0x01002f2d   Thumb Code    82  ns_ble_task.o(i.gapm_activity_stopped_ind_handler)
    i.gapm_addr_solved_ind_handler           0x01002f8c   Section        0  ns_ble_task.o(i.gapm_addr_solved_ind_handler)
    gapm_addr_solved_ind_handler             0x01002f8d   Thumb Code    32  ns_ble_task.o(i.gapm_addr_solved_ind_handler)
    i.gapm_cmp_evt_handler                   0x01002fb8   Section        0  ns_ble_task.o(i.gapm_cmp_evt_handler)
    gapm_cmp_evt_handler                     0x01002fb9   Thumb Code   932  ns_ble_task.o(i.gapm_cmp_evt_handler)
    i.gapm_ext_adv_repoer_ind_handler        0x010033cc   Section        0  ns_ble_task.o(i.gapm_ext_adv_repoer_ind_handler)
    gapm_ext_adv_repoer_ind_handler          0x010033cd   Thumb Code   164  ns_ble_task.o(i.gapm_ext_adv_repoer_ind_handler)
    i.gapm_gen_rand_nb_ind_handler           0x01003478   Section        0  ns_ble_task.o(i.gapm_gen_rand_nb_ind_handler)
    gapm_gen_rand_nb_ind_handler             0x01003479   Thumb Code    54  ns_ble_task.o(i.gapm_gen_rand_nb_ind_handler)
    i.gapm_profile_added_ind_handler         0x010034ae   Section        0  ns_ble_task.o(i.gapm_profile_added_ind_handler)
    gapm_profile_added_ind_handler           0x010034af   Thumb Code    12  ns_ble_task.o(i.gapm_profile_added_ind_handler)
    i.gapm_scan_request_ind_handler          0x010034ba   Section        0  ns_ble_task.o(i.gapm_scan_request_ind_handler)
    gapm_scan_request_ind_handler            0x010034bb   Thumb Code    12  ns_ble_task.o(i.gapm_scan_request_ind_handler)
    i.gattc_att_info_req_ind_handler         0x010034c8   Section        0  rdtss_task.o(i.gattc_att_info_req_ind_handler)
    gattc_att_info_req_ind_handler           0x010034c9   Thumb Code    58  rdtss_task.o(i.gattc_att_info_req_ind_handler)
    i.gattc_cmp_evt_handler                  0x01003508   Section        0  rdtss_task.o(i.gattc_cmp_evt_handler)
    gattc_cmp_evt_handler                    0x01003509   Thumb Code   102  rdtss_task.o(i.gattc_cmp_evt_handler)
    i.gattc_cmp_evt_handler                  0x01003578   Section        0  ns_ble_task.o(i.gattc_cmp_evt_handler)
    gattc_cmp_evt_handler                    0x01003579   Thumb Code    36  ns_ble_task.o(i.gattc_cmp_evt_handler)
    i.gattc_mtu_changed_ind_handler          0x010035a0   Section        0  ns_ble_task.o(i.gattc_mtu_changed_ind_handler)
    gattc_mtu_changed_ind_handler            0x010035a1   Thumb Code    66  ns_ble_task.o(i.gattc_mtu_changed_ind_handler)
    i.gattc_read_req_ind_handler             0x010035ec   Section        0  diss_task.o(i.gattc_read_req_ind_handler)
    gattc_read_req_ind_handler               0x010035ed   Thumb Code   188  diss_task.o(i.gattc_read_req_ind_handler)
    i.gattc_read_req_ind_handler             0x010036b0   Section        0  rdtss_task.o(i.gattc_read_req_ind_handler)
    gattc_read_req_ind_handler               0x010036b1   Thumb Code   212  rdtss_task.o(i.gattc_read_req_ind_handler)
    i.gattc_write_req_ind_handler            0x01003790   Section        0  rdtss_task.o(i.gattc_write_req_ind_handler)
    gattc_write_req_ind_handler              0x01003791   Thumb Code   260  rdtss_task.o(i.gattc_write_req_ind_handler)
    i.get_cfg_handle                         0x010038a0   Section        0  rdts_common.o(i.get_cfg_handle)
    i.get_value_handle                       0x0100390c   Section        0  rdts_common.o(i.get_value_handle)
    i.llhwc_modem_setmode                    0x01003960   Section        0  rwip_driver.o(i.llhwc_modem_setmode)
    i.llhwc_phy_prerx_flash                  0x01003990   Section        0  rwip_driver.o(i.llhwc_phy_prerx_flash)
    i.llhwc_setmode_reg_config               0x01003ac0   Section        0  rwip_driver.o(i.llhwc_setmode_reg_config)
    llhwc_setmode_reg_config                 0x01003ac1   Thumb Code    88  rwip_driver.o(i.llhwc_setmode_reg_config)
    i.main                                   0x01003b50   Section        0  main.o(i.main)
    i.malloc                                 0x01003b80   Section        0  malloc.o(i.malloc)
    i.ns_EXTI4_12_IRQHandler                 0x01003bec   Section        0  ns_ble.o(i.ns_EXTI4_12_IRQHandler)
    i.ns_HardFault_Handler                   0x01003c70   Section        0  ns_ble.o(i.ns_HardFault_Handler)
    i.ns_ble_add_prf_func_register           0x01003db0   Section        0  ns_ble.o(i.ns_ble_add_prf_func_register)
    i.ns_ble_add_svc                         0x01003dd0   Section        0  ns_ble.o(i.ns_ble_add_svc)
    i.ns_ble_adv_fsm_next                    0x01003dfc   Section        0  ns_ble.o(i.ns_ble_adv_fsm_next)
    i.ns_ble_adv_init                        0x01003ed8   Section        0  ns_ble.o(i.ns_ble_adv_init)
    i.ns_ble_adv_start                       0x01003f20   Section        0  ns_ble.o(i.ns_ble_adv_start)
    i.ns_ble_adv_stop                        0x01003f70   Section        0  ns_ble.o(i.ns_ble_adv_stop)
    i.ns_ble_delete_init                     0x01003fbc   Section        0  ns_ble.o(i.ns_ble_delete_init)
    i.ns_ble_delete_scan                     0x01003ff8   Section        0  ns_ble.o(i.ns_ble_delete_scan)
    i.ns_ble_disconnect                      0x01004030   Section        0  ns_ble.o(i.ns_ble_disconnect)
    i.ns_ble_gap_init                        0x0100405c   Section        0  ns_ble.o(i.ns_ble_gap_init)
    i.ns_ble_get_connection_num              0x010040c8   Section        0  ns_ble.o(i.ns_ble_get_connection_num)
    i.ns_ble_list_set_ral                    0x010040ec   Section        0  ns_ble.o(i.ns_ble_list_set_ral)
    i.ns_ble_lsc_config                      0x0100413c   Section        0  ns_ble.o(i.ns_ble_lsc_config)
    i.ns_ble_prf_task_register               0x010041c0   Section        0  ns_ble.o(i.ns_ble_prf_task_register)
    i.ns_ble_scan_data_find                  0x010041e8   Section        0  ns_ble.o(i.ns_ble_scan_data_find)
    i.ns_ble_stack_init                      0x01004230   Section        0  ns_ble.o(i.ns_ble_stack_init)
    i.ns_ble_start_init                      0x010044a8   Section        0  ns_ble.o(i.ns_ble_start_init)
    i.ns_ble_start_scan                      0x010045cc   Section        0  ns_ble.o(i.ns_ble_start_scan)
    i.ns_ble_stop_init                       0x01004698   Section        0  ns_ble.o(i.ns_ble_stop_init)
    i.ns_ble_stop_scan                       0x010046d0   Section        0  ns_ble.o(i.ns_ble_stop_scan)
    i.ns_ble_update_param                    0x0100470c   Section        0  ns_ble.o(i.ns_ble_update_param)
    i.ns_bond_db_get_size                    0x010047a8   Section        0  ns_sec.o(i.ns_bond_db_get_size)
    ns_bond_db_get_size                      0x010047a9   Thumb Code    36  ns_sec.o(i.ns_bond_db_get_size)
    i.ns_bond_db_load                        0x010047d4   Section        0  ns_sec.o(i.ns_bond_db_load)
    ns_bond_db_load                          0x010047d5   Thumb Code    24  ns_sec.o(i.ns_bond_db_load)
    i.ns_bond_last_bonded_addr               0x010047f0   Section        0  ns_sec.o(i.ns_bond_last_bonded_addr)
    i.ns_bond_last_bonded_peer_id            0x01004820   Section        0  ns_sec.o(i.ns_bond_last_bonded_peer_id)
    i.ns_bond_last_bonded_ral_info           0x01004850   Section        0  ns_sec.o(i.ns_bond_last_bonded_ral_info)
    i.ns_bond_resolv_addr_start              0x010048b4   Section        0  ns_sec.o(i.ns_bond_resolv_addr_start)
    i.ns_bond_search_addr_irk                0x01004914   Section        0  ns_sec.o(i.ns_bond_search_addr_irk)
    i.ns_log_lpuart_init                     0x01004990   Section        0  ns_log_lpuart.o(i.ns_log_lpuart_init)
    i.ns_peripheral_config                   0x010049f4   Section        0  ns_ble.o(i.ns_peripheral_config)
    i.ns_sec_bond_store_evt_handler          0x01004afc   Section        0  ns_sec.o(i.ns_sec_bond_store_evt_handler)
    i.ns_sec_get_bond_status                 0x01004c78   Section        0  ns_sec.o(i.ns_sec_get_bond_status)
    i.ns_sec_get_iocap                       0x01004c88   Section        0  ns_sec.o(i.ns_sec_get_iocap)
    i.ns_sec_init                            0x01004c94   Section        0  ns_sec.o(i.ns_sec_init)
    i.ns_sleep_lock_acquire                  0x01004cfc   Section        0  ns_sleep.o(i.ns_sleep_lock_acquire)
    i.ns_sleep_lock_release                  0x01004d14   Section        0  ns_sleep.o(i.ns_sleep_lock_release)
    i.ns_timer_api_process_handler           0x01004d28   Section        0  ns_timer.o(i.ns_timer_api_process_handler)
    i.patchx_enable                          0x01004df0   Section        0  ns_ble.o(i.patchx_enable)
    patchx_enable                            0x01004df1   Thumb Code    58  ns_ble.o(i.patchx_enable)
    i.prf_add_profile                        0x01004e34   Section        0  prf.o(i.prf_add_profile)
    i.prf_dst_task_get                       0x01004ebc   Section        0  prf.o(i.prf_dst_task_get)
    i.prf_env_get                            0x01004ecc   Section        0  prf.o(i.prf_env_get)
    i.prf_get_id_from_task                   0x01004efc   Section        0  prf.o(i.prf_get_id_from_task)
    i.prf_get_itf_func_register              0x01004f34   Section        0  prf.o(i.prf_get_itf_func_register)
    i.prf_get_task_from_id                   0x01004f5c   Section        0  prf.o(i.prf_get_task_from_id)
    i.prf_init                               0x01004f94   Section        0  prf.o(i.prf_init)
    i.prf_itf_get                            0x01005048   Section        0  prf.o(i.prf_itf_get)
    prf_itf_get                              0x01005049   Thumb Code    44  prf.o(i.prf_itf_get)
    i.rdtss_att_get_value                    0x01005078   Section        0  rdtss_task.o(i.rdtss_att_get_value)
    rdtss_att_get_value                      0x01005079   Thumb Code    58  rdtss_task.o(i.rdtss_att_get_value)
    i.rdtss_att_info_rsp_handler             0x010050b4   Section        0  rdtss_task.o(i.rdtss_att_info_rsp_handler)
    rdtss_att_info_rsp_handler               0x010050b5   Thumb Code    60  rdtss_task.o(i.rdtss_att_info_rsp_handler)
    i.rdtss_att_set_value                    0x010050f4   Section        0  rdtss_task.o(i.rdtss_att_set_value)
    rdtss_att_set_value                      0x010050f5   Thumb Code   104  rdtss_task.o(i.rdtss_att_set_value)
    i.rdtss_cleanup                          0x0100515c   Section        0  rdtss.o(i.rdtss_cleanup)
    rdtss_cleanup                            0x0100515d   Thumb Code    70  rdtss.o(i.rdtss_cleanup)
    i.rdtss_create                           0x010051a8   Section        0  rdtss.o(i.rdtss_create)
    rdtss_create                             0x010051a9   Thumb Code    70  rdtss.o(i.rdtss_create)
    i.rdtss_destroy                          0x010051f4   Section        0  rdtss.o(i.rdtss_destroy)
    rdtss_destroy                            0x010051f5   Thumb Code    66  rdtss.o(i.rdtss_destroy)
    i.rdtss_get_att_handle                   0x01005236   Section        0  rdts_common.o(i.rdtss_get_att_handle)
    i.rdtss_get_att_idx                      0x01005252   Section        0  rdts_common.o(i.rdtss_get_att_idx)
    i.rdtss_init                             0x0100527a   Section        0  rdtss.o(i.rdtss_init)
    rdtss_init                               0x0100527b   Thumb Code   152  rdtss.o(i.rdtss_init)
    i.rdtss_init_ccc_values                  0x01005314   Section        0  rdtss_task.o(i.rdtss_init_ccc_values)
    i.rdtss_prf_itf_get                      0x010053b8   Section        0  rdtss.o(i.rdtss_prf_itf_get)
    i.rdtss_send_notify                      0x010053c0   Section        0  app_rdtss.o(i.rdtss_send_notify)
    i.rdtss_set_ccc_value                    0x01005438   Section        0  rdtss_task.o(i.rdtss_set_ccc_value)
    i.rdtss_task_init                        0x0100546c   Section        0  rdtss_task.o(i.rdtss_task_init)
    i.rdtss_val_ind_req_handler              0x0100548c   Section        0  rdtss_task.o(i.rdtss_val_ind_req_handler)
    rdtss_val_ind_req_handler                0x0100548d   Thumb Code   176  rdtss_task.o(i.rdtss_val_ind_req_handler)
    i.rdtss_val_ntf_cfm_handler              0x0100553c   Section        0  app_rdtss.o(i.rdtss_val_ntf_cfm_handler)
    rdtss_val_ntf_cfm_handler                0x0100553d   Thumb Code     4  app_rdtss.o(i.rdtss_val_ntf_cfm_handler)
    i.rdtss_val_ntf_req_handler              0x01005540   Section        0  rdtss_task.o(i.rdtss_val_ntf_req_handler)
    rdtss_val_ntf_req_handler                0x01005541   Thumb Code   180  rdtss_task.o(i.rdtss_val_ntf_req_handler)
    i.rdtss_val_set_req_handler              0x01005604   Section        0  rdtss_task.o(i.rdtss_val_set_req_handler)
    rdtss_val_set_req_handler                0x01005605   Thumb Code    32  rdtss_task.o(i.rdtss_val_set_req_handler)
    i.rdtss_val_write_ind_handler            0x01005624   Section        0  app_rdtss.o(i.rdtss_val_write_ind_handler)
    rdtss_val_write_ind_handler              0x01005625   Thumb Code    62  app_rdtss.o(i.rdtss_val_write_ind_handler)
    i.rdtss_value_req_ind_handler            0x01005668   Section        0  app_rdtss.o(i.rdtss_value_req_ind_handler)
    rdtss_value_req_ind_handler              0x01005669   Thumb Code    56  app_rdtss.o(i.rdtss_value_req_ind_handler)
    i.rdtss_value_req_rsp_handler            0x010056ac   Section        0  rdtss_task.o(i.rdtss_value_req_rsp_handler)
    rdtss_value_req_rsp_handler              0x010056ad   Thumb Code   124  rdtss_task.o(i.rdtss_value_req_rsp_handler)
    i.resolve_frame                          0x0100572c   Section        0  bsp_frame.o(i.resolve_frame)
    i.rwip_init                              0x01005838   Section        0  rwip.o(i.rwip_init)
    i.rwip_slp_isr                           0x01005950   Section        0  rwip_driver.o(i.rwip_slp_isr)
    i.timer_canceled_handler                 0x01005a48   Section        0  ns_timer.o(i.timer_canceled_handler)
    timer_canceled_handler                   0x01005a49   Thumb Code     2  ns_timer.o(i.timer_canceled_handler)
    i.timer_init                             0x01005a4c   Section        0  bsp_timer.o(i.timer_init)
    i.timer_modified_handler                 0x01005aac   Section        0  ns_timer.o(i.timer_modified_handler)
    timer_modified_handler                   0x01005aad   Thumb Code     2  ns_timer.o(i.timer_modified_handler)
    i.timer_run                              0x01005ab0   Section        0  bsp_timer.o(i.timer_run)
    i.usart_rx_check_in_irq                  0x01005b9c   Section        0  bsp_usart.o(i.usart_rx_check_in_irq)
    i.usart_tx_dma_send                      0x01005bf0   Section        0  bsp_usart.o(i.usart_tx_dma_send)
    .constdata                               0x01005c4c   Section      472  system_n32wb03x.o(.constdata)
    .constdata                               0x01005e24   Section       12  n32wb03x_rcc.o(.constdata)
    s_AhbPresTable                           0x01005e24   Data           4  n32wb03x_rcc.o(.constdata)
    s_ApbPresTable                           0x01005e28   Data           8  n32wb03x_rcc.o(.constdata)
    .constdata                               0x01005e30   Section      804  n32wb03x_qflash.o(.constdata)
    .constdata                               0x01006154   Section       30  rwip_driver.o(.constdata)
    TXPWR_MAP                                0x01006154   Data          30  rwip_driver.o(.constdata)
    .constdata                               0x01006174   Section      168  diss.o(.constdata)
    .constdata                               0x0100621c   Section       24  diss_task.o(.constdata)
    diss_msg_handler_tab                     0x0100621c   Data          24  diss_task.o(.constdata)
    .constdata                               0x01006234   Section       16  rdtss.o(.constdata)
    .constdata                               0x01006244   Section       72  rdtss_task.o(.constdata)
    rdtss_msg_handler_tab                    0x01006244   Data          72  rdtss_task.o(.constdata)
    .constdata                               0x0100628c   Section       40  ns_sec.o(.constdata)
    .constdata                               0x010062b4   Section        8  ns_sec.o(.constdata)
    .constdata                               0x010062bc   Section      841  ns_ble.o(.constdata)
    fun_5_Array                              0x010062bc   Data         820  ns_ble.o(.constdata)
    __func__                                 0x010065f0   Data          21  ns_ble.o(.constdata)
    .constdata                               0x01006606   Section      205  ns_ble_task.o(.constdata)
    gapm_att_db                              0x01006606   Data          88  ns_ble_task.o(.constdata)
    gattm_att_db                             0x0100665e   Data          64  ns_ble_task.o(.constdata)
    __func__                                 0x0100669e   Data          21  ns_ble_task.o(.constdata)
    __func__                                 0x010066b3   Data          32  ns_ble_task.o(.constdata)
    .constdata                               0x010066d4   Section      200  ns_ble_task.o(.constdata)
    app_msg_handler_tab                      0x010066d4   Data         200  ns_ble_task.o(.constdata)
    .constdata                               0x0100679c   Section       12  ns_ble_task.o(.constdata)
    .constdata                               0x010067a8   Section        8  app_dis.o(.constdata)
    .constdata                               0x010067b0   Section        8  app_dis.o(.constdata)
    .constdata                               0x010067b8   Section      178  app_rdtss.o(.constdata)
    .constdata                               0x0100686c   Section       24  app_rdtss.o(.constdata)
    .constdata                               0x01006884   Section       17  bsp_tm1650.o(.constdata)
    .data                                    0x20004000   Section        4  system_n32wb03x.o(.data)
    .data                                    0x20004004   Section       12  n32wb03x_qflash.o(.data)
    .data                                    0x20004010   Section       20  rwip_driver.o(.data)
    modem_setmode                            0x20004011   Data           2  rwip_driver.o(.data)
    actual_frequency                         0x20004014   Data           4  rwip_driver.o(.data)
    modem_reg_bc                             0x20004018   Data           4  rwip_driver.o(.data)
    modem_reg_bd                             0x2000401c   Data           4  rwip_driver.o(.data)
    modem_reg_be                             0x20004020   Data           4  rwip_driver.o(.data)
    .data                                    0x20004024   Section        1  ns_log_lpuart.o(.data)
    func_lock                                0x20004024   Data           1  ns_log_lpuart.o(.data)
    .data                                    0x20004028   Section        8  ns_sleep.o(.data)
    .data                                    0x20004040   Section     1780  ns_ble.o(.data)
    reload_time                              0x20004048   Data           8  ns_ble.o(.data)
    patch_4_Array                            0x20004080   Data          64  ns_ble.o(.data)
    patch_5_Array                            0x200040c0   Data          64  ns_ble.o(.data)
    patch_7_Array                            0x20004100   Data          64  ns_ble.o(.data)
    patch_8_Array                            0x20004140   Data          64  ns_ble.o(.data)
    fun_8_Array                              0x20004180   Data        1292  ns_ble.o(.data)
    patch_9_Array                            0x200046c0   Data          64  ns_ble.o(.data)
    rwip_fifo_isr_codeArray                  0x20004700   Data          52  ns_ble.o(.data)
    .data                                    0x20004734   Section        2  ns_ble_task.o(.data)
    calib_times                              0x20004734   Data           2  ns_ble_task.o(.data)
    .data                                    0x20004736   Section        1  ns_ble_task.o(.data)
    .data                                    0x20004737   Section        1  app_rdtss.o(.data)
    .data                                    0x20004738   Section       24  bsp_usart.o(.data)
    .data                                    0x20004750   Section       10  bsp_frame.o(.data)
    frame_state                              0x20004750   Data           1  bsp_frame.o(.data)
    rx_index                                 0x20004754   Data           2  bsp_frame.o(.data)
    .data                                    0x2000475c   Section       24  bsp_timer.o(.data)
    last_state                               0x2000475d   Data           1  bsp_timer.o(.data)
    old_sec_time                             0x20004768   Data           4  bsp_timer.o(.data)
    old_do_time                              0x2000476c   Data           4  bsp_timer.o(.data)
    led1_idle_time                           0x20004770   Data           4  bsp_timer.o(.data)
    .data                                    0x20004774   Section        4  rand.o(.data)
    _rand_state                              0x20004774   Data           4  rand.o(.data)
    .data                                    0x20004778   Section        4  mvars.o(.data)
    .data                                    0x2000477c   Section        4  mvars.o(.data)
    .bss                                     0x20004780   Section       52  system_n32wb03x.o(.bss)
    .bss                                     0x200047b4   Section      808  n32wb03x_qflash.o(.bss)
    ram_qflash_cmd                           0x200047b4   Data         808  n32wb03x_qflash.o(.bss)
    .bss                                     0x20004adc   Section      284  prf.o(.bss)
    .bss                                     0x20004bf8   Section       80  ns_timer.o(.bss)
    timer_callback_array                     0x20004bf8   Data          40  ns_timer.o(.bss)
    modified_timer_callback_array            0x20004c20   Data          40  ns_timer.o(.bss)
    .bss                                     0x20004c48   Section       92  ns_sec.o(.bss)
    .bss                                     0x20004ca4   Section      432  ns_ble.o(.bss)
    .bss                                     0x20004e54   Section     2256  bsp_usart.o(.bss)
    .bss                                     0x20005724   Section     1012  bsp_frame.o(.bss)
    rx_msg                                   0x20005b0c   Data          12  bsp_frame.o(.bss)
    HEAP                                     0x20005b18   Section      512  startup_n32wb03x.o(HEAP)
    STACK                                    0x20005d18   Section     2048  startup_n32wb03x.o(STACK)

    Global Symbols

    Symbol Name                              Value     Ov Type        Size  Object(Section)

    BuildAttributes$$THM_ISAv3M$S$PE$A:L22$X:L11$S22$IEEE1$IW$USESV6$~STKCKD$USESV7$~SHL$OTIME$ROPI$EBA8$MICROLIB$REQ8$PRES8$EABIv2 0x00000000   Number         0  anon$$obj.o ABSOLUTE
    __ARM_use_no_argv                        0x00000000   Number         0  main.o ABSOLUTE
    _printf_a                                0x00000000   Number         0  stubs.o ABSOLUTE
    _printf_c                                0x00000000   Number         0  stubs.o ABSOLUTE
    _printf_charcount                        0x00000000   Number         0  stubs.o ABSOLUTE
    _printf_d                                0x00000000   Number         0  stubs.o ABSOLUTE
    _printf_e                                0x00000000   Number         0  stubs.o ABSOLUTE
    _printf_f                                0x00000000   Number         0  stubs.o ABSOLUTE
    _printf_flags                            0x00000000   Number         0  stubs.o ABSOLUTE
    _printf_fp_dec                           0x00000000   Number         0  stubs.o ABSOLUTE
    _printf_fp_hex                           0x00000000   Number         0  stubs.o ABSOLUTE
    _printf_g                                0x00000000   Number         0  stubs.o ABSOLUTE
    _printf_i                                0x00000000   Number         0  stubs.o ABSOLUTE
    _printf_int_dec                          0x00000000   Number         0  stubs.o ABSOLUTE
    _printf_l                                0x00000000   Number         0  stubs.o ABSOLUTE
    _printf_lc                               0x00000000   Number         0  stubs.o ABSOLUTE
    _printf_ll                               0x00000000   Number         0  stubs.o ABSOLUTE
    _printf_lld                              0x00000000   Number         0  stubs.o ABSOLUTE
    _printf_lli                              0x00000000   Number         0  stubs.o ABSOLUTE
    _printf_llo                              0x00000000   Number         0  stubs.o ABSOLUTE
    _printf_llu                              0x00000000   Number         0  stubs.o ABSOLUTE
    _printf_llx                              0x00000000   Number         0  stubs.o ABSOLUTE
    _printf_longlong_dec                     0x00000000   Number         0  stubs.o ABSOLUTE
    _printf_longlong_hex                     0x00000000   Number         0  stubs.o ABSOLUTE
    _printf_longlong_oct                     0x00000000   Number         0  stubs.o ABSOLUTE
    _printf_ls                               0x00000000   Number         0  stubs.o ABSOLUTE
    _printf_mbtowc                           0x00000000   Number         0  stubs.o ABSOLUTE
    _printf_n                                0x00000000   Number         0  stubs.o ABSOLUTE
    _printf_o                                0x00000000   Number         0  stubs.o ABSOLUTE
    _printf_p                                0x00000000   Number         0  stubs.o ABSOLUTE
    _printf_percent                          0x00000000   Number         0  stubs.o ABSOLUTE
    _printf_pre_padding                      0x00000000   Number         0  stubs.o ABSOLUTE
    _printf_return_value                     0x00000000   Number         0  stubs.o ABSOLUTE
    _printf_s                                0x00000000   Number         0  stubs.o ABSOLUTE
    _printf_sizespec                         0x00000000   Number         0  stubs.o ABSOLUTE
    _printf_str                              0x00000000   Number         0  stubs.o ABSOLUTE
    _printf_truncate_signed                  0x00000000   Number         0  stubs.o ABSOLUTE
    _printf_truncate_unsigned                0x00000000   Number         0  stubs.o ABSOLUTE
    _printf_u                                0x00000000   Number         0  stubs.o ABSOLUTE
    _printf_wc                               0x00000000   Number         0  stubs.o ABSOLUTE
    _printf_wctomb                           0x00000000   Number         0  stubs.o ABSOLUTE
    _printf_widthprec                        0x00000000   Number         0  stubs.o ABSOLUTE
    _printf_x                                0x00000000   Number         0  stubs.o ABSOLUTE
    __cpp_initialize__aeabi_                  - Undefined Weak Reference
    __cxa_finalize                            - Undefined Weak Reference
    _clock_init                               - Undefined Weak Reference
    _microlib_exit                            - Undefined Weak Reference
    __Vectors_Size                           0x000000c0   Number         0  startup_n32wb03x.o ABSOLUTE
    Adc_IRQHandler                           0x00000a9d   Thumb Code     0  symbol_g15.obj ABSOLUTE
    Add2SelfBigHex256                        0x00000abd   Thumb Code     0  symbol_g15.obj ABSOLUTE
    AddBigHex256                             0x00000b05   Thumb Code     0  symbol_g15.obj ABSOLUTE
    AddBigHexModP256                         0x00000b55   Thumb Code     0  symbol_g15.obj ABSOLUTE
    AddP256                                  0x00000ba5   Thumb Code     0  symbol_g15.obj ABSOLUTE
    AddPdiv2_256                             0x00000bd5   Thumb Code     0  symbol_g15.obj ABSOLUTE
    BT_set_advert_data                       0x00000cdd   Thumb Code     0  symbol_g15.obj ABSOLUTE
    EXTI_PA11_Configuration                  0x00001079   Thumb Code     0  symbol_g15.obj ABSOLUTE
    ModuleIrqRegister                        0x00002211   Thumb Code     0  symbol_g15.obj ABSOLUTE
    ModuleIrqRemoval                         0x0000223d   Thumb Code     0  symbol_g15.obj ABSOLUTE
    Spi2_IRQHandler                          0x000025d9   Thumb Code     0  symbol_g15.obj ABSOLUTE
    SubtractBigHex256                        0x000025f9   Thumb Code     0  symbol_g15.obj ABSOLUTE
    SubtractBigHexMod256                     0x00002655   Thumb Code     0  symbol_g15.obj ABSOLUTE
    SubtractFromSelfBigHex256                0x00002751   Thumb Code     0  symbol_g15.obj ABSOLUTE
    SubtractFromSelfBigHexSign256            0x000027a5   Thumb Code     0  symbol_g15.obj ABSOLUTE
    SysTick_IRQHandler                       0x0000286d   Thumb Code     0  symbol_g15.obj ABSOLUTE
    Tim1BrkUpRrgCom_IRQHandler               0x00002895   Thumb Code     0  symbol_g15.obj ABSOLUTE
    Tim1Cc_IRQHandler                        0x000028b5   Thumb Code     0  symbol_g15.obj ABSOLUTE
    Tim3_IRQHandler                          0x000028d5   Thumb Code     0  symbol_g15.obj ABSOLUTE
    Tim6_IRQHandler                          0x000028f5   Thumb Code     0  symbol_g15.obj ABSOLUTE
    Usart1_IRQHandler                        0x00002915   Thumb Code     0  symbol_g15.obj ABSOLUTE
    Usart2_IRQHandler                        0x00002935   Thumb Code     0  symbol_g15.obj ABSOLUTE
    Wdt_IRQHandler                           0x00002955   Thumb Code     0  symbol_g15.obj ABSOLUTE
    __ARM_common_ll_muluu                    0x00002985   Thumb Code     0  symbol_g15.obj ABSOLUTE
    __ARM_common_memclr1_5                   0x000029b7   Thumb Code     0  symbol_g15.obj ABSOLUTE
    __ARM_common_memclr1_6                   0x000029c5   Thumb Code     0  symbol_g15.obj ABSOLUTE
    __ARM_common_memclr1_8                   0x000029d5   Thumb Code     0  symbol_g15.obj ABSOLUTE
    __ARM_common_memclr2_10                  0x000029e9   Thumb Code     0  symbol_g15.obj ABSOLUTE
    __ARM_common_memclr2_6                   0x000029f7   Thumb Code     0  symbol_g15.obj ABSOLUTE
    __ARM_common_memclr2_8                   0x00002a01   Thumb Code     0  symbol_g15.obj ABSOLUTE
    __ARM_common_memcpy1_5                   0x00002a0d   Thumb Code     0  symbol_g15.obj ABSOLUTE
    __ARM_common_memcpy1_6                   0x00002a23   Thumb Code     0  symbol_g15.obj ABSOLUTE
    __ARM_common_memcpy1_8                   0x00002a3d   Thumb Code     0  symbol_g15.obj ABSOLUTE
    __ARM_common_memcpy2_5                   0x00002a5f   Thumb Code     0  symbol_g15.obj ABSOLUTE
    __ARM_common_memcpy2_6                   0x00002a6d   Thumb Code     0  symbol_g15.obj ABSOLUTE
    __ARM_common_memcpy2_8                   0x00002a7b   Thumb Code     0  symbol_g15.obj ABSOLUTE
    __ARM_common_memcpy4_5                   0x00002a8d   Thumb Code     0  symbol_g15.obj ABSOLUTE
    __ARM_common_memset1_5                   0x00002a97   Thumb Code     0  symbol_g15.obj ABSOLUTE
    __ARM_common_memset4_5                   0x00002aa5   Thumb Code     0  symbol_g15.obj ABSOLUTE
    __scatterload_copy                       0x00002ae1   Thumb Code     0  symbol_g15.obj ABSOLUTE
    __scatterload_null                       0x00002aef   Thumb Code     0  symbol_g15.obj ABSOLUTE
    __scatterload_zeroinit                   0x00002af1   Thumb Code     0  symbol_g15.obj ABSOLUTE
    acl_flow_ctrl_send                       0x00002b1d   Thumb Code     0  symbol_g15.obj ABSOLUTE
    aes_alloc                                0x00002b5d   Thumb Code     0  symbol_g15.obj ABSOLUTE
    aes_c1                                   0x00002b75   Thumb Code     0  symbol_g15.obj ABSOLUTE
    aes_cmac                                 0x00002bf9   Thumb Code     0  symbol_g15.obj ABSOLUTE
    aes_cmac_continue                        0x00002c45   Thumb Code     0  symbol_g15.obj ABSOLUTE
    aes_cmac_start                           0x00002d71   Thumb Code     0  symbol_g15.obj ABSOLUTE
    aes_encrypt                              0x00002da1   Thumb Code     0  symbol_g15.obj ABSOLUTE
    aes_f4                                   0x00002e35   Thumb Code     0  symbol_g15.obj ABSOLUTE
    aes_init                                 0x00002e89   Thumb Code     0  symbol_g15.obj ABSOLUTE
    aes_rand                                 0x00002ed9   Thumb Code     0  symbol_g15.obj ABSOLUTE
    aes_result_handler                       0x00002f09   Thumb Code     0  symbol_g15.obj ABSOLUTE
    aes_rpa_gen                              0x00002f61   Thumb Code     0  symbol_g15.obj ABSOLUTE
    aes_rpa_resolve                          0x00002ff5   Thumb Code     0  symbol_g15.obj ABSOLUTE
    aes_shift_left_128                       0x000030d9   Thumb Code     0  symbol_g15.obj ABSOLUTE
    aes_start                                0x00003101   Thumb Code     0  symbol_g15.obj ABSOLUTE
    aes_xor_128                              0x00003131   Thumb Code     0  symbol_g15.obj ABSOLUTE
    ahi_init                                 0x000043b1   Thumb Code     0  symbol_g15.obj ABSOLUTE
    ahi_send_msg                             0x00004425   Thumb Code     0  symbol_g15.obj ABSOLUTE
    app2ahi_evt_cmd_cmp                      0x0000452d   Thumb Code     0  symbol_g15.obj ABSOLUTE
    app2ahi_evt_other                        0x00004599   Thumb Code     0  symbol_g15.obj ABSOLUTE
    appc_data_lenght_extend                  0x00004cf5   Thumb Code     0  symbol_g15.obj ABSOLUTE
    appm_exchange_mtu                        0x00004d25   Thumb Code     0  symbol_g15.obj ABSOLUTE
    attc_l2cc_pdu_recv_handler               0x00004e3d   Thumb Code     0  symbol_g15.obj ABSOLUTE
    attc_send_att_req                        0x00004e8d   Thumb Code     0  symbol_g15.obj ABSOLUTE
    attm_att_get_perm                        0x00004eb9   Thumb Code     0  symbol_g15.obj ABSOLUTE
    attm_att_update_perm                     0x00004ed1   Thumb Code     0  symbol_g15.obj ABSOLUTE
    attm_convert_to128                       0x00004f4d   Thumb Code     0  symbol_g15.obj ABSOLUTE
    attm_get_value                           0x00004f95   Thumb Code     0  symbol_g15.obj ABSOLUTE
    attm_init                                0x00005119   Thumb Code     0  symbol_g15.obj ABSOLUTE
    attm_is_bt16_uuid                        0x0000513d   Thumb Code     0  symbol_g15.obj ABSOLUTE
    attm_is_bt32_uuid                        0x00005175   Thumb Code     0  symbol_g15.obj ABSOLUTE
    attm_svc_create_db                       0x000051b5   Thumb Code     0  symbol_g15.obj ABSOLUTE
    attm_svc_create_db_128                   0x000052ab   Thumb Code     0  symbol_g15.obj ABSOLUTE
    attm_svc_get_permission                  0x000053d1   Thumb Code     0  symbol_g15.obj ABSOLUTE
    attm_uuid16_comp                         0x000053ef   Thumb Code     0  symbol_g15.obj ABSOLUTE
    attm_uuid_comp                           0x000053fd   Thumb Code     0  symbol_g15.obj ABSOLUTE
    attmdb_add_service                       0x00005469   Thumb Code     0  symbol_g15.obj ABSOLUTE
    attmdb_att_get_permission                0x000054e9   Thumb Code     0  symbol_g15.obj ABSOLUTE
    attmdb_destroy                           0x0000563d   Thumb Code     0  symbol_g15.obj ABSOLUTE
    attmdb_get_attribute                     0x0000566d   Thumb Code     0  symbol_g15.obj ABSOLUTE
    attmdb_get_max_len                       0x000056a1   Thumb Code     0  symbol_g15.obj ABSOLUTE
    attmdb_get_next_att                      0x00005715   Thumb Code     0  symbol_g15.obj ABSOLUTE
    attmdb_get_service                       0x00005799   Thumb Code     0  symbol_g15.obj ABSOLUTE
    attmdb_get_uuid                          0x000057ed   Thumb Code     0  symbol_g15.obj ABSOLUTE
    attmdb_hash_compute                      0x000058d5   Thumb Code     0  symbol_g15.obj ABSOLUTE
    attmdb_svc_check_hdl                     0x00005dfd   Thumb Code     0  symbol_g15.obj ABSOLUTE
    attmdb_uuid16_comp                       0x00006065   Thumb Code     0  symbol_g15.obj ABSOLUTE
    atts_clear_prep_data                     0x000060a9   Thumb Code     0  symbol_g15.obj ABSOLUTE
    atts_clear_read_cache                    0x000060e5   Thumb Code     0  symbol_g15.obj ABSOLUTE
    atts_clear_rsp_data                      0x00006105   Thumb Code     0  symbol_g15.obj ABSOLUTE
    atts_get_dest_task                       0x000067b9   Thumb Code     0  symbol_g15.obj ABSOLUTE
    atts_l2cc_pdu_recv_handler               0x00006861   Thumb Code     0  symbol_g15.obj ABSOLUTE
    atts_process_pdu                         0x00006af1   Thumb Code     0  symbol_g15.obj ABSOLUTE
    atts_send_error                          0x000071d9   Thumb Code     0  symbol_g15.obj ABSOLUTE
    atts_send_event                          0x000071fd   Thumb Code     0  symbol_g15.obj ABSOLUTE
    atts_write_rsp_send                      0x000073b5   Thumb Code     0  symbol_g15.obj ABSOLUTE
    atts_write_signed_cfm                    0x0000746b   Thumb Code     0  symbol_g15.obj ABSOLUTE
    baseband_init                            0x000074b1   Thumb Code     0  symbol_g15.obj ABSOLUTE
    bigHexInversion256                       0x00007549   Thumb Code     0  symbol_g15.obj ABSOLUTE
    ble_util_buf_acl_tx_alloc                0x0000777d   Thumb Code     0  symbol_g15.obj ABSOLUTE
    ble_util_buf_acl_tx_elt_get              0x000077a5   Thumb Code     0  symbol_g15.obj ABSOLUTE
    ble_util_buf_acl_tx_free                 0x0000780d   Thumb Code     0  symbol_g15.obj ABSOLUTE
    ble_util_buf_adv_tx_alloc                0x0000788d   Thumb Code     0  symbol_g15.obj ABSOLUTE
    ble_util_buf_adv_tx_free                 0x000078b5   Thumb Code     0  symbol_g15.obj ABSOLUTE
    ble_util_buf_init                        0x0000791d   Thumb Code     0  symbol_g15.obj ABSOLUTE
    ble_util_buf_llcp_tx_alloc               0x00007a5d   Thumb Code     0  symbol_g15.obj ABSOLUTE
    ble_util_buf_llcp_tx_free                0x00007a79   Thumb Code     0  symbol_g15.obj ABSOLUTE
    ble_util_buf_rx_alloc                    0x00007ac9   Thumb Code     0  symbol_g15.obj ABSOLUTE
    ble_util_buf_rx_free                     0x00007ae1   Thumb Code     0  symbol_g15.obj ABSOLUTE
    calib_clk_init                           0x00007b51   Thumb Code     0  symbol_g15.obj ABSOLUTE
    calib_hsi_clk                            0x00007b65   Thumb Code     0  symbol_g15.obj ABSOLUTE
    calib_lsi_clk                            0x00007c1d   Thumb Code     0  symbol_g15.obj ABSOLUTE
    co_bdaddr_compare                        0x00007e17   Thumb Code     0  symbol_g15.obj ABSOLUTE
    co_ble_pkt_dur_in_us                     0x00007e37   Thumb Code     0  symbol_g15.obj ABSOLUTE
    co_list_extract                          0x00007e69   Thumb Code     0  symbol_g15.obj ABSOLUTE
    co_list_extract_after                    0x00007ea3   Thumb Code     0  symbol_g15.obj ABSOLUTE
    co_list_extract_sublist                  0x00007ebd   Thumb Code     0  symbol_g15.obj ABSOLUTE
    co_list_init                             0x00007ed3   Thumb Code     0  symbol_g15.obj ABSOLUTE
    co_list_insert_after                     0x00007edb   Thumb Code     0  symbol_g15.obj ABSOLUTE
    co_list_insert_before                    0x00007f3d   Thumb Code     0  symbol_g15.obj ABSOLUTE
    co_list_pool_init                        0x00007f8d   Thumb Code     0  symbol_g15.obj ABSOLUTE
    co_list_pop_front                        0x00007faf   Thumb Code     0  symbol_g15.obj ABSOLUTE
    co_list_push_back                        0x00007fc3   Thumb Code     0  symbol_g15.obj ABSOLUTE
    co_list_push_back_sublist                0x00007fe3   Thumb Code     0  symbol_g15.obj ABSOLUTE
    co_list_push_front                       0x00008003   Thumb Code     0  symbol_g15.obj ABSOLUTE
    co_list_size                             0x0000801b   Thumb Code     0  symbol_g15.obj ABSOLUTE
    co_nb_good_le_channels                   0x00008031   Thumb Code     0  symbol_g15.obj ABSOLUTE
    co_util_pack                             0x00008059   Thumb Code     0  symbol_g15.obj ABSOLUTE
    co_util_unpack                           0x00008241   Thumb Code     0  symbol_g15.obj ABSOLUTE
    delay_n_10us                             0x00008471   Thumb Code     0  symbol_g15.obj ABSOLUTE
    delay_n_ms                               0x00008489   Thumb Code     0  symbol_g15.obj ABSOLUTE
    delay_n_us                               0x000084a9   Thumb Code     0  symbol_g15.obj ABSOLUTE
    dl_upd_proc_start                        0x000084c1   Thumb Code     0  symbol_g15.obj ABSOLUTE
    dma_lpuart_read                          0x00008531   Thumb Code     0  symbol_g15.obj ABSOLUTE
    dma_lpuart_rx_len                        0x000085f9   Thumb Code     0  symbol_g15.obj ABSOLUTE
    dma_soft_flow_ctrl_read                  0x00008615   Thumb Code     0  symbol_g15.obj ABSOLUTE
    dma_soft_flow_ctrl_write                 0x00008751   Thumb Code     0  symbol_g15.obj ABSOLUTE
    dma_spis_read                            0x00008885   Thumb Code     0  symbol_g15.obj ABSOLUTE
    dma_spis_rx_len                          0x00008951   Thumb Code     0  symbol_g15.obj ABSOLUTE
    dma_spis_tx_len                          0x0000896d   Thumb Code     0  symbol_g15.obj ABSOLUTE
    dma_spis_write                           0x00008989   Thumb Code     0  symbol_g15.obj ABSOLUTE
    ecc_gen_new_public_key                   0x00008b4d   Thumb Code     0  symbol_g15.obj ABSOLUTE
    ecc_gen_new_secret_key                   0x00008b6d   Thumb Code     0  symbol_g15.obj ABSOLUTE
    ecc_generate_key256                      0x00008c65   Thumb Code     0  symbol_g15.obj ABSOLUTE
    ecc_init                                 0x00008ff5   Thumb Code     0  symbol_g15.obj ABSOLUTE
    entry_shutdown                           0x00009575   Thumb Code     0  symbol_g15.obj ABSOLUTE
    gapc_auth_get                            0x0000998d   Thumb Code     0  symbol_g15.obj ABSOLUTE
    gapc_auth_set                            0x000099c5   Thumb Code     0  symbol_g15.obj ABSOLUTE
    gapc_bond_cfm_handler                    0x00009a25   Thumb Code     0  symbol_g15.obj ABSOLUTE
    gapc_bond_cmd_handler                    0x00009c81   Thumb Code     0  symbol_g15.obj ABSOLUTE
    gapc_con_cleanup                         0x0000a101   Thumb Code     0  symbol_g15.obj ABSOLUTE
    gapc_con_create                          0x0000a111   Thumb Code     0  symbol_g15.obj ABSOLUTE
    gapc_enc_keysize_get                     0x0000a505   Thumb Code     0  symbol_g15.obj ABSOLUTE
    gapc_encrypt_cfm_handler                 0x0000a521   Thumb Code     0  symbol_g15.obj ABSOLUTE
    gapc_encrypt_cmd_handler                 0x0000a5c9   Thumb Code     0  symbol_g15.obj ABSOLUTE
    gapc_get_bdaddr                          0x0000a74d   Thumb Code     0  symbol_g15.obj ABSOLUTE
    gapc_get_chan_sel_algo                   0x0000a771   Thumb Code     0  symbol_g15.obj ABSOLUTE
    gapc_get_conhdl                          0x0000a789   Thumb Code     0  symbol_g15.obj ABSOLUTE
    gapc_get_conidx                          0x0000a7a9   Thumb Code     0  symbol_g15.obj ABSOLUTE
    gapc_get_dest_task                       0x0000a7d5   Thumb Code     0  symbol_g15.obj ABSOLUTE
    gapc_get_operation                       0x0000ab1d   Thumb Code     0  symbol_g15.obj ABSOLUTE
    gapc_get_operation_ptr                   0x0000ab39   Thumb Code     0  symbol_g15.obj ABSOLUTE
    gapc_get_requester                       0x0000ab49   Thumb Code     0  symbol_g15.obj ABSOLUTE
    gapc_get_role                            0x0000ab69   Thumb Code     0  symbol_g15.obj ABSOLUTE
    gapc_hci_handler                         0x0000ab89   Thumb Code     0  symbol_g15.obj ABSOLUTE
    gapc_init                                0x0000abfd   Thumb Code     0  symbol_g15.obj ABSOLUTE
    gapc_is_sec_set                          0x0000ac51   Thumb Code     0  symbol_g15.obj ABSOLUTE
    gapc_lk_sec_lvl_get                      0x0000ace1   Thumb Code     0  symbol_g15.obj ABSOLUTE
    gapc_param_update_sanity                 0x0000af89   Thumb Code     0  symbol_g15.obj ABSOLUTE
    gapc_per_adv_sync_trans_cmd_handler      0x0000b039   Thumb Code     0  symbol_g15.obj ABSOLUTE
    gapc_process_op                          0x0000b0f1   Thumb Code     0  symbol_g15.obj ABSOLUTE
    gapc_reschedule_operation                0x0000b191   Thumb Code     0  symbol_g15.obj ABSOLUTE
    gapc_security_cmd_handler                0x0000b1c5   Thumb Code     0  symbol_g15.obj ABSOLUTE
    gapc_send_complete_evt                   0x0000b261   Thumb Code     0  symbol_g15.obj ABSOLUTE
    gapc_send_disconect_ind                  0x0000b2d5   Thumb Code     0  symbol_g15.obj ABSOLUTE
    gapc_send_error_evt                      0x0000b2f9   Thumb Code     0  symbol_g15.obj ABSOLUTE
    gapc_set_local_addr                      0x0000b469   Thumb Code     0  symbol_g15.obj ABSOLUTE
    gapc_set_operation_ptr                   0x0000b4d9   Thumb Code     0  symbol_g15.obj ABSOLUTE
    gapc_sig_pdu_recv_handler                0x0000b601   Thumb Code     0  symbol_g15.obj ABSOLUTE
    gapc_sign_cmd_handler                    0x0000b639   Thumb Code     0  symbol_g15.obj ABSOLUTE
    gapc_smp_cleanup                         0x0000bb21   Thumb Code     0  symbol_g15.obj ABSOLUTE
    gapc_smp_gapm_cmp_evt_handler            0x0000bc6d   Thumb Code     0  symbol_g15.obj ABSOLUTE
    gapc_smp_pdu_recv                        0x0000c15d   Thumb Code     0  symbol_g15.obj ABSOLUTE
    gapc_smp_rep_attempts_timer_handler      0x0000c5b9   Thumb Code     0  symbol_g15.obj ABSOLUTE
    gapc_smp_timeout_timer_ind_handler       0x0000c7f1   Thumb Code     0  symbol_g15.obj ABSOLUTE
    gapc_update_state                        0x0000ca65   Thumb Code     0  symbol_g15.obj ABSOLUTE
    gapm_activity_create_cmd_handler         0x0000ca9d   Thumb Code     0  symbol_g15.obj ABSOLUTE
    gapm_activity_delete_cmd_handler         0x0000cb7d   Thumb Code     0  symbol_g15.obj ABSOLUTE
    gapm_activity_start_cmd_handler          0x0000cc0d   Thumb Code     0  symbol_g15.obj ABSOLUTE
    gapm_activity_stop_cmd_handler           0x0000cc7d   Thumb Code     0  symbol_g15.obj ABSOLUTE
    gapm_actv_alloc                          0x0000cd55   Thumb Code     0  symbol_g15.obj ABSOLUTE
    gapm_actv_created                        0x0000cd85   Thumb Code     0  symbol_g15.obj ABSOLUTE
    gapm_actv_deleted                        0x0000cdf9   Thumb Code     0  symbol_g15.obj ABSOLUTE
    gapm_actv_get_hci_own_addr_type          0x0000ce75   Thumb Code     0  symbol_g15.obj ABSOLUTE
    gapm_actv_info_get                       0x0000ce99   Thumb Code     0  symbol_g15.obj ABSOLUTE
    gapm_actv_rand_addr_set_ind              0x0000cedd   Thumb Code     0  symbol_g15.obj ABSOLUTE
    gapm_actv_reset                          0x0000cef9   Thumb Code     0  symbol_g15.obj ABSOLUTE
    gapm_actv_retrieve_cmd_cmp_evt           0x0000cf49   Thumb Code     0  symbol_g15.obj ABSOLUTE
    gapm_actv_started                        0x0000cf81   Thumb Code     0  symbol_g15.obj ABSOLUTE
    gapm_actv_stopped                        0x0000cfad   Thumb Code     0  symbol_g15.obj ABSOLUTE
    gapm_addr_init                           0x0000d119   Thumb Code     0  symbol_g15.obj ABSOLUTE
    gapm_addr_renew_cmd_handler              0x0000d135   Thumb Code     0  symbol_g15.obj ABSOLUTE
    gapm_addr_renew_to_ind_handler           0x0000d1d9   Thumb Code     0  symbol_g15.obj ABSOLUTE
    gapm_addr_set_rand_addr                  0x0000d201   Thumb Code     0  symbol_g15.obj ABSOLUTE
    gapm_adv_create                          0x0000d265   Thumb Code     0  symbol_g15.obj ABSOLUTE
    gapm_con_cleanup                         0x0000d989   Thumb Code     0  symbol_g15.obj ABSOLUTE
    gapm_con_create                          0x0000d9bd   Thumb Code     0  symbol_g15.obj ABSOLUTE
    gapm_dev_bdaddr_ind_handler              0x0000da29   Thumb Code     0  symbol_g15.obj ABSOLUTE
    gapm_dle_val_check                       0x0000da6d   Thumb Code     0  symbol_g15.obj ABSOLUTE
    gapm_gen_rand_addr_cmd_handler           0x0000da8d   Thumb Code     0  symbol_g15.obj ABSOLUTE
    gapm_get_address_type                    0x0000db31   Thumb Code     0  symbol_g15.obj ABSOLUTE
    gapm_get_att_handle                      0x0000db41   Thumb Code     0  symbol_g15.obj ABSOLUTE
    gapm_get_bdaddr                          0x0000db85   Thumb Code     0  symbol_g15.obj ABSOLUTE
    gapm_get_dev_info_cmd_handler            0x0000db8d   Thumb Code     0  symbol_g15.obj ABSOLUTE
    gapm_get_id_from_task                    0x0000dcc1   Thumb Code     0  symbol_g15.obj ABSOLUTE
    gapm_get_irk                             0x0000dd15   Thumb Code     0  symbol_g15.obj ABSOLUTE
    gapm_get_max_mtu                         0x0000dd1d   Thumb Code     0  symbol_g15.obj ABSOLUTE
    gapm_get_operation                       0x0000dd29   Thumb Code     0  symbol_g15.obj ABSOLUTE
    gapm_get_ral_addr_cmd_handler            0x0000dd41   Thumb Code     0  symbol_g15.obj ABSOLUTE
    gapm_get_requester                       0x0000dd99   Thumb Code     0  symbol_g15.obj ABSOLUTE
    gapm_get_task_from_id                    0x0000ddb5   Thumb Code     0  symbol_g15.obj ABSOLUTE
    gapm_init                                0x0000de5d   Thumb Code     0  symbol_g15.obj ABSOLUTE
    gapm_is_legacy_pairing_supp              0x0000defd   Thumb Code     0  symbol_g15.obj ABSOLUTE
    gapm_is_pref_con_param_pres              0x0000df0d   Thumb Code     0  symbol_g15.obj ABSOLUTE
    gapm_is_sec_con_pairing_supp             0x0000df1d   Thumb Code     0  symbol_g15.obj ABSOLUTE
    gapm_le_test_mode_ctrl_cmd_handler       0x0000df2d   Thumb Code     0  symbol_g15.obj ABSOLUTE
    gapm_lepsm_register_cmd_handler          0x0000e01d   Thumb Code     0  symbol_g15.obj ABSOLUTE
    gapm_lepsm_unregister_cmd_handler        0x0000e045   Thumb Code     0  symbol_g15.obj ABSOLUTE
    gapm_list_set_cmd_handler                0x0000e06d   Thumb Code     0  symbol_g15.obj ABSOLUTE
    gapm_process_op                          0x0000e271   Thumb Code     0  symbol_g15.obj ABSOLUTE
    gapm_profile_task_add_cmd_handler        0x0000e355   Thumb Code     0  symbol_g15.obj ABSOLUTE
    gapm_reset_cmd_handler                   0x0000e3d9   Thumb Code     0  symbol_g15.obj ABSOLUTE
    gapm_resolv_addr_cmd_handler             0x0000e44d   Thumb Code     0  symbol_g15.obj ABSOLUTE
    gapm_send_complete_evt                   0x0000e49d   Thumb Code     0  symbol_g15.obj ABSOLUTE
    gapm_send_error_evt                      0x0000e4e5   Thumb Code     0  symbol_g15.obj ABSOLUTE
    gapm_set_adv_data_cmd_handler            0x0000e509   Thumb Code     0  symbol_g15.obj ABSOLUTE
    gapm_set_channel_map_cmd_handler         0x0000e669   Thumb Code     0  symbol_g15.obj ABSOLUTE
    gapm_set_dev_config_cmd_handler          0x0000e6c9   Thumb Code     0  symbol_g15.obj ABSOLUTE
    gapm_set_irk_cmd_handler                 0x0000e839   Thumb Code     0  symbol_g15.obj ABSOLUTE
    gapm_use_enc_block_cmd_handler           0x0000ea51   Thumb Code     0  symbol_g15.obj ABSOLUTE
    gattc_cleanup                            0x0000ebcd   Thumb Code     0  symbol_g15.obj ABSOLUTE
    gattc_con_enable                         0x0000ed79   Thumb Code     0  symbol_g15.obj ABSOLUTE
    gattc_con_info_send                      0x0000ee29   Thumb Code     0  symbol_g15.obj ABSOLUTE
    gattc_create                             0x0000ee9d   Thumb Code     0  symbol_g15.obj ABSOLUTE
    gattc_db_updated                         0x0000ef1d   Thumb Code     0  symbol_g15.obj ABSOLUTE
    gattc_get_l2c_code                       0x0000eff5   Thumb Code     0  symbol_g15.obj ABSOLUTE
    gattc_get_mtu                            0x0000f005   Thumb Code     0  symbol_g15.obj ABSOLUTE
    gattc_get_operation                      0x0000f015   Thumb Code     0  symbol_g15.obj ABSOLUTE
    gattc_get_operation_ptr                  0x0000f031   Thumb Code     0  symbol_g15.obj ABSOLUTE
    gattc_init                               0x0000f041   Thumb Code     0  symbol_g15.obj ABSOLUTE
    gattc_is_db_out_of_sync                  0x0000f099   Thumb Code     0  symbol_g15.obj ABSOLUTE
    gattc_process_op                         0x0000f251   Thumb Code     0  symbol_g15.obj ABSOLUTE
    gattc_send_complete_evt                  0x0000f565   Thumb Code     0  symbol_g15.obj ABSOLUTE
    gattc_send_error_evt                     0x0000f5c5   Thumb Code     0  symbol_g15.obj ABSOLUTE
    gattc_set_mtu                            0x0000f649   Thumb Code     0  symbol_g15.obj ABSOLUTE
    gattc_set_operation_ptr                  0x0000f6b1   Thumb Code     0  symbol_g15.obj ABSOLUTE
    gattc_svc_att_info_req_ind_handler       0x0000f6c1   Thumb Code     0  symbol_g15.obj ABSOLUTE
    gattc_svc_chg_ind_send                   0x0000f70d   Thumb Code     0  symbol_g15.obj ABSOLUTE
    gattc_svc_read_req_ind_handler           0x0000f761   Thumb Code     0  symbol_g15.obj ABSOLUTE
    gattc_svc_write_req_ind_handler          0x0000f7fd   Thumb Code     0  symbol_g15.obj ABSOLUTE
    gattc_update_state                       0x0000f931   Thumb Code     0  symbol_g15.obj ABSOLUTE
    gattm_att_hdl_to_idx                     0x0000fb05   Thumb Code     0  symbol_g15.obj ABSOLUTE
    gattm_att_idx_to_hdl                     0x0000fb25   Thumb Code     0  symbol_g15.obj ABSOLUTE
    gattm_cleanup                            0x0000fb6d   Thumb Code     0  symbol_g15.obj ABSOLUTE
    gattm_create                             0x0000fb77   Thumb Code     0  symbol_g15.obj ABSOLUTE
    gattm_db_updated                         0x0000fb81   Thumb Code     0  symbol_g15.obj ABSOLUTE
    gattm_init                               0x0000fbc9   Thumb Code     0  symbol_g15.obj ABSOLUTE
    h4tl_init                                0x0000fee1   Thumb Code     0  symbol_g15.obj ABSOLUTE
    h4tl_read_start_next                     0x0000ff89   Thumb Code     0  symbol_g15.obj ABSOLUTE
    h4tl_write                               0x00010249   Thumb Code     0  symbol_g15.obj ABSOLUTE
    handle_all_data                          0x000102b5   Thumb Code     0  symbol_g15.obj ABSOLUTE
    hci_acl_data_handler                     0x000103d9   Thumb Code     0  symbol_g15.obj ABSOLUTE
    hci_acl_tx_data_alloc                    0x00010545   Thumb Code     0  symbol_g15.obj ABSOLUTE
    hci_acl_tx_data_received                 0x000105ad   Thumb Code     0  symbol_g15.obj ABSOLUTE
    hci_acl_tx_trigger                       0x00010605   Thumb Code     0  symbol_g15.obj ABSOLUTE
    hci_basic_cmd_cmp_evt_cfg_handler        0x00010665   Thumb Code     0  symbol_g15.obj ABSOLUTE
    hci_basic_cmd_cmp_evt_rl_cfg_handler     0x000106f1   Thumb Code     0  symbol_g15.obj ABSOLUTE
    hci_basic_cmd_send_2_controller          0x0001073d   Thumb Code     0  symbol_g15.obj ABSOLUTE
    hci_ble_conhdl_register                  0x00010755   Thumb Code     0  symbol_g15.obj ABSOLUTE
    hci_ble_conhdl_unregister                0x00010765   Thumb Code     0  symbol_g15.obj ABSOLUTE
    hci_cmd_get_max_param_size               0x00010775   Thumb Code     0  symbol_g15.obj ABSOLUTE
    hci_cmd_received                         0x00010789   Thumb Code     0  symbol_g15.obj ABSOLUTE
    hci_command_handler                      0x00010acd   Thumb Code     0  symbol_g15.obj ABSOLUTE
    hci_disconnect_cmd_handler               0x00010b59   Thumb Code     0  symbol_g15.obj ABSOLUTE
    hci_enc_chg_evt_handler                  0x00010bf1   Thumb Code     0  symbol_g15.obj ABSOLUTE
    hci_enc_key_refr_evt_handler             0x00010c13   Thumb Code     0  symbol_g15.obj ABSOLUTE
    hci_evt_mask_set                         0x00010c35   Thumb Code     0  symbol_g15.obj ABSOLUTE
    hci_fc_acl_buf_size_set                  0x00010c8d   Thumb Code     0  symbol_g15.obj ABSOLUTE
    hci_fc_acl_en                            0x00010ca1   Thumb Code     0  symbol_g15.obj ABSOLUTE
    hci_fc_acl_packet_sent                   0x00010cd5   Thumb Code     0  symbol_g15.obj ABSOLUTE
    hci_fc_check_host_available_nb_acl_packets 0x00010ce9   Thumb Code     0  symbol_g15.obj ABSOLUTE
    hci_fc_host_nb_acl_pkts_complete         0x00010d0d   Thumb Code     0  symbol_g15.obj ABSOLUTE
    hci_fc_init                              0x00010d25   Thumb Code     0  symbol_g15.obj ABSOLUTE
    hci_init                                 0x00010e25   Thumb Code     0  symbol_g15.obj ABSOLUTE
    hci_le_add_dev_to_per_adv_list_cmd_handler 0x00010e71   Thumb Code     0  symbol_g15.obj ABSOLUTE
    hci_le_adv_set_term_evt_handler          0x000111fd   Thumb Code     0  symbol_g15.obj ABSOLUTE
    hci_le_ch_sel_algo_evt_handler           0x00011281   Thumb Code     0  symbol_g15.obj ABSOLUTE
    hci_le_clear_adv_sets_cmd_handler        0x000112a5   Thumb Code     0  symbol_g15.obj ABSOLUTE
    hci_le_clear_per_adv_list_cmd_handler    0x00011319   Thumb Code     0  symbol_g15.obj ABSOLUTE
    hci_le_cmd_cmp_evt_addr_handler          0x00011445   Thumb Code     0  symbol_g15.obj ABSOLUTE
    hci_le_cmd_cmp_evt_adv_handler           0x00011465   Thumb Code     0  symbol_g15.obj ABSOLUTE
    hci_le_cmd_cmp_evt_list_handler          0x00011679   Thumb Code     0  symbol_g15.obj ABSOLUTE
    hci_le_con_cte_req_en_cmd_handler        0x000117c9   Thumb Code     0  symbol_g15.obj ABSOLUTE
    hci_le_con_cte_rsp_en_cmd_handler        0x00011909   Thumb Code     0  symbol_g15.obj ABSOLUTE
    hci_le_con_upd_cmd_handler               0x00011b09   Thumb Code     0  symbol_g15.obj ABSOLUTE
    hci_le_create_con_cancel_cmd_handler     0x00011e41   Thumb Code     0  symbol_g15.obj ABSOLUTE
    hci_le_create_con_cmd_handler            0x00011ea1   Thumb Code     0  symbol_g15.obj ABSOLUTE
    hci_le_enh_con_cmp_evt_handler           0x00012275   Thumb Code     0  symbol_g15.obj ABSOLUTE
    hci_le_ext_create_con_cmd_handler        0x0001246d   Thumb Code     0  symbol_g15.obj ABSOLUTE
    hci_le_ltk_req_neg_reply_cmd_handler     0x000129bd   Thumb Code     0  symbol_g15.obj ABSOLUTE
    hci_le_ltk_req_reply_cmd_handler         0x00012a59   Thumb Code     0  symbol_g15.obj ABSOLUTE
    hci_le_ltk_request_evt_handler           0x00012acd   Thumb Code     0  symbol_g15.obj ABSOLUTE
    hci_le_per_adv_create_sync_cancel_cmd_handler 0x00012bf1   Thumb Code     0  symbol_g15.obj ABSOLUTE
    hci_le_per_adv_create_sync_cmd_handler   0x00012cc5   Thumb Code     0  symbol_g15.obj ABSOLUTE
    hci_le_per_adv_set_info_transf_cmd_handler 0x00012d89   Thumb Code     0  symbol_g15.obj ABSOLUTE
    hci_le_per_adv_sync_transf_cmd_handler   0x00012e31   Thumb Code     0  symbol_g15.obj ABSOLUTE
    hci_le_per_adv_term_sync_cmd_handler     0x00012ec1   Thumb Code     0  symbol_g15.obj ABSOLUTE
    hci_le_rd_adv_ch_tx_pw_cmd_handler       0x00012fc1   Thumb Code     0  symbol_g15.obj ABSOLUTE
    hci_le_rd_adv_chnl_tx_pw_cmd_cmp_evt_handler 0x0001300d   Thumb Code     0  symbol_g15.obj ABSOLUTE
    hci_le_rd_chnl_map_cmd_handler           0x000130b5   Thumb Code     0  symbol_g15.obj ABSOLUTE
    hci_le_rd_max_adv_data_len_cmd_handler   0x000131dd   Thumb Code     0  symbol_g15.obj ABSOLUTE
    hci_le_rd_max_data_len_cmd_cmp_evt_handler 0x00013219   Thumb Code     0  symbol_g15.obj ABSOLUTE
    hci_le_rd_nb_supp_adv_sets_cmd_cmp_evt_handler 0x0001328d   Thumb Code     0  symbol_g15.obj ABSOLUTE
    hci_le_rd_nb_supp_adv_sets_cmd_handler   0x000132c9   Thumb Code     0  symbol_g15.obj ABSOLUTE
    hci_le_rd_per_adv_list_size_cmd_handler  0x00013371   Thumb Code     0  symbol_g15.obj ABSOLUTE
    hci_le_rd_phy_cmd_handler                0x00013401   Thumb Code     0  symbol_g15.obj ABSOLUTE
    hci_le_rd_ral_addr_cmd_cmp_evt_handler   0x00013459   Thumb Code     0  symbol_g15.obj ABSOLUTE
    hci_le_rd_ral_size_cmd_cmp_evt_handler   0x000134c5   Thumb Code     0  symbol_g15.obj ABSOLUTE
    hci_le_rd_rem_feats_cmd_handler          0x00013521   Thumb Code     0  symbol_g15.obj ABSOLUTE
    hci_le_rd_rf_path_comp_cmd_cmp_evt_handler 0x00013675   Thumb Code     0  symbol_g15.obj ABSOLUTE
    hci_le_rd_suggted_dft_data_len_cmd_cmp_evt_handler 0x00013715   Thumb Code     0  symbol_g15.obj ABSOLUTE
    hci_le_rd_tx_pwr_cmd_cmp_evt_handler     0x000137b5   Thumb Code     0  symbol_g15.obj ABSOLUTE
    hci_le_rd_wlst_size_cmd_cmp_evt_handler  0x0001386d   Thumb Code     0  symbol_g15.obj ABSOLUTE
    hci_le_read_max_adv_data_len_cmd_cmp_evt_handler 0x000138c9   Thumb Code     0  symbol_g15.obj ABSOLUTE
    hci_le_rem_con_param_req_neg_reply_cmd_handler 0x00013961   Thumb Code     0  symbol_g15.obj ABSOLUTE
    hci_le_rem_con_param_req_reply_cmd_handler 0x000139c5   Thumb Code     0  symbol_g15.obj ABSOLUTE
    hci_le_rmv_adv_set_cmd_handler           0x00013a59   Thumb Code     0  symbol_g15.obj ABSOLUTE
    hci_le_rmv_dev_from_per_adv_list_cmd_handler 0x00013ac1   Thumb Code     0  symbol_g15.obj ABSOLUTE
    hci_le_rx_test_v1_cmd_handler            0x00013c2d   Thumb Code     0  symbol_g15.obj ABSOLUTE
    hci_le_rx_test_v2_cmd_handler            0x00013c6f   Thumb Code     0  symbol_g15.obj ABSOLUTE
    hci_le_rx_test_v3_cmd_handler            0x00013cc1   Thumb Code     0  symbol_g15.obj ABSOLUTE
    hci_le_scan_req_rcvd_evt_handler         0x00013d65   Thumb Code     0  symbol_g15.obj ABSOLUTE
    hci_le_set_adv_data_cmd_handler          0x00013df5   Thumb Code     0  symbol_g15.obj ABSOLUTE
    hci_le_set_adv_en_cmd_handler            0x00013ead   Thumb Code     0  symbol_g15.obj ABSOLUTE
    hci_le_set_adv_param_cmd_handler         0x000140f9   Thumb Code     0  symbol_g15.obj ABSOLUTE
    hci_le_set_adv_set_rand_addr_cmd_handler 0x00014269   Thumb Code     0  symbol_g15.obj ABSOLUTE
    hci_le_set_con_cte_rx_param_cmd_handler  0x000142d5   Thumb Code     0  symbol_g15.obj ABSOLUTE
    hci_le_set_con_cte_tx_param_cmd_handler  0x000143f1   Thumb Code     0  symbol_g15.obj ABSOLUTE
    hci_le_set_conless_cte_tx_en_cmd_handler 0x000144e5   Thumb Code     0  symbol_g15.obj ABSOLUTE
    hci_le_set_conless_cte_tx_param_cmd_handler 0x000145b9   Thumb Code     0  symbol_g15.obj ABSOLUTE
    hci_le_set_conless_iq_sampl_en_cmd_handler 0x0001466d   Thumb Code     0  symbol_g15.obj ABSOLUTE
    hci_le_set_data_len_cmd_handler          0x00014779   Thumb Code     0  symbol_g15.obj ABSOLUTE
    hci_le_set_ext_adv_data_cmd_handler      0x00014969   Thumb Code     0  symbol_g15.obj ABSOLUTE
    hci_le_set_ext_adv_en_cmd_handler        0x00014af5   Thumb Code     0  symbol_g15.obj ABSOLUTE
    hci_le_set_ext_adv_param_cmd_handler     0x000150e5   Thumb Code     0  symbol_g15.obj ABSOLUTE
    hci_le_set_ext_scan_en_cmd_handler       0x000152d1   Thumb Code     0  symbol_g15.obj ABSOLUTE
    hci_le_set_ext_scan_param_cmd_handler    0x0001551d   Thumb Code     0  symbol_g15.obj ABSOLUTE
    hci_le_set_ext_scan_rsp_data_cmd_handler 0x00015725   Thumb Code     0  symbol_g15.obj ABSOLUTE
    hci_le_set_per_adv_data_cmd_handler      0x000158cd   Thumb Code     0  symbol_g15.obj ABSOLUTE
    hci_le_set_per_adv_en_cmd_handler        0x000159f9   Thumb Code     0  symbol_g15.obj ABSOLUTE
    hci_le_set_per_adv_param_cmd_handler     0x00015c25   Thumb Code     0  symbol_g15.obj ABSOLUTE
    hci_le_set_per_adv_rec_en_cmd_handler    0x00015d05   Thumb Code     0  symbol_g15.obj ABSOLUTE
    hci_le_set_per_adv_sync_transf_param_cmd_handler 0x00015d5d   Thumb Code     0  symbol_g15.obj ABSOLUTE
    hci_le_set_phy_cmd_handler               0x00015dd5   Thumb Code     0  symbol_g15.obj ABSOLUTE
    hci_le_set_scan_en_cmd_handler           0x00016039   Thumb Code     0  symbol_g15.obj ABSOLUTE
    hci_le_set_scan_param_cmd_handler        0x000161f1   Thumb Code     0  symbol_g15.obj ABSOLUTE
    hci_le_set_scan_rsp_data_cmd_handler     0x00016311   Thumb Code     0  symbol_g15.obj ABSOLUTE
    hci_le_start_enc_cmd_handler             0x000163c9   Thumb Code     0  symbol_g15.obj ABSOLUTE
    hci_le_test_end_cmd_handler              0x0001649d   Thumb Code     0  symbol_g15.obj ABSOLUTE
    hci_le_tx_test_v1_cmd_handler            0x000164c9   Thumb Code     0  symbol_g15.obj ABSOLUTE
    hci_le_tx_test_v2_cmd_handler            0x00016519   Thumb Code     0  symbol_g15.obj ABSOLUTE
    hci_le_tx_test_v3_cmd_handler            0x00016575   Thumb Code     0  symbol_g15.obj ABSOLUTE
    hci_look_for_cmd_desc                    0x000166a9   Thumb Code     0  symbol_g15.obj ABSOLUTE
    hci_look_for_evt_desc                    0x00016705   Thumb Code     0  symbol_g15.obj ABSOLUTE
    hci_look_for_le_evt_desc                 0x0001672d   Thumb Code     0  symbol_g15.obj ABSOLUTE
    hci_past_cmd_cmp_evt_handler             0x000167ef   Thumb Code     0  symbol_g15.obj ABSOLUTE
    hci_rd_auth_payl_to_cmd_handler          0x0001687d   Thumb Code     0  symbol_g15.obj ABSOLUTE
    hci_rd_local_ver_info_cmd_cmp_evt_handler 0x000169d9   Thumb Code     0  symbol_g15.obj ABSOLUTE
    hci_rd_rem_ver_info_cmd_handler          0x00016a79   Thumb Code     0  symbol_g15.obj ABSOLUTE
    hci_rd_rssi_cmd_handler                  0x00016be1   Thumb Code     0  symbol_g15.obj ABSOLUTE
    hci_rd_tx_pwr_lvl_cmd_handler            0x00016c55   Thumb Code     0  symbol_g15.obj ABSOLUTE
    hci_send_2_controller                    0x00016cf9   Thumb Code     0  symbol_g15.obj ABSOLUTE
    hci_send_2_host                          0x00016d79   Thumb Code     0  symbol_g15.obj ABSOLUTE
    hci_test_end_cmd_cmp_evt_handler         0x00016f25   Thumb Code     0  symbol_g15.obj ABSOLUTE
    hci_tl_init                              0x00016f75   Thumb Code     0  symbol_g15.obj ABSOLUTE
    hci_tl_send                              0x00016fcd   Thumb Code     0  symbol_g15.obj ABSOLUTE
    hci_vs_set_max_rx_size_and_time_cmd_handler 0x000173d9   Thumb Code     0  symbol_g15.obj ABSOLUTE
    hci_vs_set_pref_slave_evt_dur_cmd_handler 0x000174fd   Thumb Code     0  symbol_g15.obj ABSOLUTE
    hci_vs_set_pref_slave_latency_cmd_handler 0x00017591   Thumb Code     0  symbol_g15.obj ABSOLUTE
    hci_wr_auth_payl_to_cmd_handler          0x00017611   Thumb Code     0  symbol_g15.obj ABSOLUTE
    initdata_config                          0x00017671   Thumb Code     0  symbol_g15.obj ABSOLUTE
    interface_check                          0x0001772d   Thumb Code     0  symbol_g15.obj ABSOLUTE
    interface_reinit                         0x000177c5   Thumb Code     0  symbol_g15.obj ABSOLUTE
    ke_event_callback_set                    0x00017805   Thumb Code     0  symbol_g15.obj ABSOLUTE
    ke_event_clear                           0x0001781d   Thumb Code     0  symbol_g15.obj ABSOLUTE
    ke_event_get_all                         0x00017845   Thumb Code     0  symbol_g15.obj ABSOLUTE
    ke_event_init                            0x00017851   Thumb Code     0  symbol_g15.obj ABSOLUTE
    ke_event_schedule                        0x00017871   Thumb Code     0  symbol_g15.obj ABSOLUTE
    ke_event_set                             0x000178ad   Thumb Code     0  symbol_g15.obj ABSOLUTE
    ke_flush                                 0x000178d5   Thumb Code     0  symbol_g15.obj ABSOLUTE
    ke_free                                  0x00017919   Thumb Code     0  symbol_g15.obj ABSOLUTE
    ke_init                                  0x000179e5   Thumb Code     0  symbol_g15.obj ABSOLUTE
    ke_is_free                               0x00017a15   Thumb Code     0  symbol_g15.obj ABSOLUTE
    ke_malloc                                0x00017a2d   Thumb Code     0  symbol_g15.obj ABSOLUTE
    ke_mem_init                              0x00017afd   Thumb Code     0  symbol_g15.obj ABSOLUTE
    ke_msg_alloc                             0x00017b39   Thumb Code     0  symbol_g15.obj ABSOLUTE
    ke_msg_discard                           0x00017b6b   Thumb Code     0  symbol_g15.obj ABSOLUTE
    ke_msg_forward                           0x00017b71   Thumb Code     0  symbol_g15.obj ABSOLUTE
    ke_msg_free                              0x00017b9d   Thumb Code     0  symbol_g15.obj ABSOLUTE
    ke_msg_in_queue                          0x00017ba5   Thumb Code     0  symbol_g15.obj ABSOLUTE
    ke_msg_send                              0x00017bb1   Thumb Code     0  symbol_g15.obj ABSOLUTE
    ke_msg_send_basic                        0x00017bd9   Thumb Code     0  symbol_g15.obj ABSOLUTE
    ke_msg_src_id_get                        0x00017c25   Thumb Code     0  symbol_g15.obj ABSOLUTE
    ke_queue_extract                         0x00017c2b   Thumb Code     0  symbol_g15.obj ABSOLUTE
    ke_queue_insert                          0x00017c6d   Thumb Code     0  symbol_g15.obj ABSOLUTE
    ke_sleep_check                           0x00017ca1   Thumb Code     0  symbol_g15.obj ABSOLUTE
    ke_state_get                             0x00017cb5   Thumb Code     0  symbol_g15.obj ABSOLUTE
    ke_state_set                             0x00017cd9   Thumb Code     0  symbol_g15.obj ABSOLUTE
    ke_task_check                            0x00017d41   Thumb Code     0  symbol_g15.obj ABSOLUTE
    ke_task_create                           0x00017d61   Thumb Code     0  symbol_g15.obj ABSOLUTE
    ke_task_delete                           0x00017d95   Thumb Code     0  symbol_g15.obj ABSOLUTE
    ke_task_init                             0x00017dc1   Thumb Code     0  symbol_g15.obj ABSOLUTE
    ke_task_msg_flush                        0x00017ddd   Thumb Code     0  symbol_g15.obj ABSOLUTE
    ke_timer_active                          0x00017f51   Thumb Code     0  symbol_g15.obj ABSOLUTE
    ke_timer_clear                           0x00017f7d   Thumb Code     0  symbol_g15.obj ABSOLUTE
    ke_timer_init                            0x00017ff5   Thumb Code     0  symbol_g15.obj ABSOLUTE
    ke_timer_set                             0x000180bd   Thumb Code     0  symbol_g15.obj ABSOLUTE
    l2cc_cleanup                             0x000182b5   Thumb Code     0  symbol_g15.obj ABSOLUTE
    l2cc_cmp_evt_handler                     0x0001844f   Thumb Code     0  symbol_g15.obj ABSOLUTE
    l2cc_create                              0x0001847d   Thumb Code     0  symbol_g15.obj ABSOLUTE
    l2cc_data_send                           0x000184c5   Thumb Code     0  symbol_g15.obj ABSOLUTE
    l2cc_init                                0x000186a9   Thumb Code     0  symbol_g15.obj ABSOLUTE
    l2cc_pdu_alloc                           0x00018741   Thumb Code     0  symbol_g15.obj ABSOLUTE
    l2cc_pdu_header_check                    0x0001876d   Thumb Code     0  symbol_g15.obj ABSOLUTE
    l2cc_pdu_pack                            0x000188c5   Thumb Code     0  symbol_g15.obj ABSOLUTE
    l2cc_pdu_rx_init                         0x00018c41   Thumb Code     0  symbol_g15.obj ABSOLUTE
    l2cc_pdu_send                            0x00018cbd   Thumb Code     0  symbol_g15.obj ABSOLUTE
    l2cc_pdu_unpack                          0x00018d25   Thumb Code     0  symbol_g15.obj ABSOLUTE
    l2cc_send_cmp_evt                        0x00018f55   Thumb Code     0  symbol_g15.obj ABSOLUTE
    l2cc_sig_pdu_recv_handler                0x00018f81   Thumb Code     0  symbol_g15.obj ABSOLUTE
    l2cc_sig_send_cmd_reject                 0x00018fc9   Thumb Code     0  symbol_g15.obj ABSOLUTE
    l2cm_cleanup                             0x00019021   Thumb Code     0  symbol_g15.obj ABSOLUTE
    l2cm_create                              0x0001903d   Thumb Code     0  symbol_g15.obj ABSOLUTE
    l2cm_get_nb_buffer_available             0x00019045   Thumb Code     0  symbol_g15.obj ABSOLUTE
    l2cm_init                                0x00019051   Thumb Code     0  symbol_g15.obj ABSOLUTE
    l2cm_set_link_layer_buff_size            0x000190d9   Thumb Code     0  symbol_g15.obj ABSOLUTE
    l2cm_tx_status                           0x000190e9   Thumb Code     0  symbol_g15.obj ABSOLUTE
    ll_channel_map_ind_handler               0x00019119   Thumb Code     0  symbol_g15.obj ABSOLUTE
    ll_clk_acc_req_handler                   0x000191b5   Thumb Code     0  symbol_g15.obj ABSOLUTE
    ll_clk_acc_rsp_handler                   0x00019209   Thumb Code     0  symbol_g15.obj ABSOLUTE
    ll_connection_param_req_handler          0x00019245   Thumb Code     0  symbol_g15.obj ABSOLUTE
    ll_connection_param_rsp_handler          0x0001931d   Thumb Code     0  symbol_g15.obj ABSOLUTE
    ll_connection_update_ind_handler         0x000193b5   Thumb Code     0  symbol_g15.obj ABSOLUTE
    ll_cte_req_handler                       0x000194d1   Thumb Code     0  symbol_g15.obj ABSOLUTE
    ll_cte_rsp_handler                       0x00019545   Thumb Code     0  symbol_g15.obj ABSOLUTE
    ll_enc_req_handler                       0x00019565   Thumb Code     0  symbol_g15.obj ABSOLUTE
    ll_enc_rsp_handler                       0x0001962d   Thumb Code     0  symbol_g15.obj ABSOLUTE
    ll_feature_req_handler                   0x000196a5   Thumb Code     0  symbol_g15.obj ABSOLUTE
    ll_feature_rsp_handler                   0x0001972d   Thumb Code     0  symbol_g15.obj ABSOLUTE
    ll_length_req_handler                    0x00019781   Thumb Code     0  symbol_g15.obj ABSOLUTE
    ll_length_rsp_handler                    0x000198d5   Thumb Code     0  symbol_g15.obj ABSOLUTE
    ll_min_used_channels_ind_handler         0x00019951   Thumb Code     0  symbol_g15.obj ABSOLUTE
    ll_pause_enc_req_handler                 0x000199d1   Thumb Code     0  symbol_g15.obj ABSOLUTE
    ll_pause_enc_rsp_handler                 0x00019a3d   Thumb Code     0  symbol_g15.obj ABSOLUTE
    ll_per_sync_ind_handler                  0x00019a95   Thumb Code     0  symbol_g15.obj ABSOLUTE
    ll_phy_req_handler                       0x00019bf5   Thumb Code     0  symbol_g15.obj ABSOLUTE
    ll_phy_rsp_handler                       0x00019ca5   Thumb Code     0  symbol_g15.obj ABSOLUTE
    ll_phy_update_ind_handler                0x00019d21   Thumb Code     0  symbol_g15.obj ABSOLUTE
    ll_ping_req_handler                      0x00019db5   Thumb Code     0  symbol_g15.obj ABSOLUTE
    ll_ping_rsp_handler                      0x00019dc9   Thumb Code     0  symbol_g15.obj ABSOLUTE
    ll_slave_feature_req_handler             0x00019e25   Thumb Code     0  symbol_g15.obj ABSOLUTE
    ll_start_enc_req_handler                 0x00019ead   Thumb Code     0  symbol_g15.obj ABSOLUTE
    ll_start_enc_rsp_handler                 0x00019efd   Thumb Code     0  symbol_g15.obj ABSOLUTE
    ll_terminate_ind_handler                 0x00019f4d   Thumb Code     0  symbol_g15.obj ABSOLUTE
    ll_version_ind_handler                   0x00019fb1   Thumb Code     0  symbol_g15.obj ABSOLUTE
    llc_auth_payl_nearly_to_handler          0x0001a051   Thumb Code     0  symbol_g15.obj ABSOLUTE
    llc_auth_payl_real_to_handler            0x0001a0b1   Thumb Code     0  symbol_g15.obj ABSOLUTE
    llc_cleanup                              0x0001a141   Thumb Code     0  symbol_g15.obj ABSOLUTE
    llc_clk_acc_modify                       0x0001a1a5   Thumb Code     0  symbol_g15.obj ABSOLUTE
    llc_cmd_cmp_send                         0x0001a275   Thumb Code     0  symbol_g15.obj ABSOLUTE
    llc_cmd_stat_send                        0x0001a295   Thumb Code     0  symbol_g15.obj ABSOLUTE
    llc_con_move_cbk                         0x0001a2b1   Thumb Code     0  symbol_g15.obj ABSOLUTE
    llc_cte_req_dis                          0x0001a45d   Thumb Code     0  symbol_g15.obj ABSOLUTE
    llc_cte_req_to_handler                   0x0001a47d   Thumb Code     0  symbol_g15.obj ABSOLUTE
    llc_cte_rsp_dis                          0x0001a50d   Thumb Code     0  symbol_g15.obj ABSOLUTE
    llc_disconnect                           0x0001a521   Thumb Code     0  symbol_g15.obj ABSOLUTE
    llc_encrypt_ind_handler                  0x0001a729   Thumb Code     0  symbol_g15.obj ABSOLUTE
    llc_init                                 0x0001a9c1   Thumb Code     0  symbol_g15.obj ABSOLUTE
    llc_init_term_proc                       0x0001aa65   Thumb Code     0  symbol_g15.obj ABSOLUTE
    llc_le_ping_restart                      0x0001ab19   Thumb Code     0  symbol_g15.obj ABSOLUTE
    llc_le_ping_set                          0x0001ab55   Thumb Code     0  symbol_g15.obj ABSOLUTE
    llc_ll_reject_ind_pdu_send               0x0001abe1   Thumb Code     0  symbol_g15.obj ABSOLUTE
    llc_llcp_send                            0x0001ac6d   Thumb Code     0  symbol_g15.obj ABSOLUTE
    llc_llcp_state_set                       0x0001ace9   Thumb Code     0  symbol_g15.obj ABSOLUTE
    llc_llcp_tx_check                        0x0001ada5   Thumb Code     0  symbol_g15.obj ABSOLUTE
    llc_op_ch_map_upd_ind_handler            0x0001bd71   Thumb Code     0  symbol_g15.obj ABSOLUTE
    llc_op_clk_acc_ind_handler               0x0001bdd5   Thumb Code     0  symbol_g15.obj ABSOLUTE
    llc_op_con_upd_ind_handler               0x0001be2d   Thumb Code     0  symbol_g15.obj ABSOLUTE
    llc_op_cte_ind_handler                   0x0001bebd   Thumb Code     0  symbol_g15.obj ABSOLUTE
    llc_op_disconnect_ind_handler            0x0001bf15   Thumb Code     0  symbol_g15.obj ABSOLUTE
    llc_op_dl_upd_ind_handler                0x0001bf81   Thumb Code     0  symbol_g15.obj ABSOLUTE
    llc_op_encrypt_ind_handler               0x0001c015   Thumb Code     0  symbol_g15.obj ABSOLUTE
    llc_op_feats_exch_ind_handler            0x0001c07d   Thumb Code     0  symbol_g15.obj ABSOLUTE
    llc_op_le_ping_ind_handler               0x0001c115   Thumb Code     0  symbol_g15.obj ABSOLUTE
    llc_op_past_ind_handler                  0x0001c171   Thumb Code     0  symbol_g15.obj ABSOLUTE
    llc_op_phy_upd_ind_handler               0x0001c401   Thumb Code     0  symbol_g15.obj ABSOLUTE
    llc_op_ver_exch_ind_handler              0x0001c4a5   Thumb Code     0  symbol_g15.obj ABSOLUTE
    llc_proc_collision_check                 0x0001c91d   Thumb Code     0  symbol_g15.obj ABSOLUTE
    llc_proc_err_ind                         0x0001c955   Thumb Code     0  symbol_g15.obj ABSOLUTE
    llc_proc_get                             0x0001c985   Thumb Code     0  symbol_g15.obj ABSOLUTE
    llc_proc_id_get                          0x0001c99d   Thumb Code     0  symbol_g15.obj ABSOLUTE
    llc_proc_reg                             0x0001c9b9   Thumb Code     0  symbol_g15.obj ABSOLUTE
    llc_proc_state_get                       0x0001c9ed   Thumb Code     0  symbol_g15.obj ABSOLUTE
    llc_proc_state_set                       0x0001c9f1   Thumb Code     0  symbol_g15.obj ABSOLUTE
    llc_proc_timer_pause_set                 0x0001c9f5   Thumb Code     0  symbol_g15.obj ABSOLUTE
    llc_proc_timer_set                       0x0001ca4d   Thumb Code     0  symbol_g15.obj ABSOLUTE
    llc_proc_unreg                           0x0001caa5   Thumb Code     0  symbol_g15.obj ABSOLUTE
    llc_start                                0x0001d309   Thumb Code     0  symbol_g15.obj ABSOLUTE
    llc_stop                                 0x0001d4fd   Thumb Code     0  symbol_g15.obj ABSOLUTE
    llc_stopped_ind_handler                  0x0001d531   Thumb Code     0  symbol_g15.obj ABSOLUTE
    lld_aa_gen                               0x0001d649   Thumb Code     0  symbol_g15.obj ABSOLUTE
    lld_acl_rx_ind_handler                   0x0001d6c9   Thumb Code     0  symbol_g15.obj ABSOLUTE
    lld_acl_tx_cfm_handler                   0x0001d755   Thumb Code     0  symbol_g15.obj ABSOLUTE
    lld_adv_adv_data_update                  0x0001d855   Thumb Code     0  symbol_g15.obj ABSOLUTE
    lld_adv_duration_update                  0x0001da55   Thumb Code     0  symbol_g15.obj ABSOLUTE
    lld_adv_end_ind_handler                  0x0001db35   Thumb Code     0  symbol_g15.obj ABSOLUTE
    lld_adv_evt_start_cbk                    0x0001dfd9   Thumb Code     0  symbol_g15.obj ABSOLUTE
    lld_adv_init                             0x0001efc9   Thumb Code     0  symbol_g15.obj ABSOLUTE
    lld_adv_rand_addr_update                 0x0001f33d   Thumb Code     0  symbol_g15.obj ABSOLUTE
    lld_adv_rep_ind_handler                  0x0001f391   Thumb Code     0  symbol_g15.obj ABSOLUTE
    lld_adv_restart                          0x0001f891   Thumb Code     0  symbol_g15.obj ABSOLUTE
    lld_adv_scan_rsp_data_update             0x0001fa11   Thumb Code     0  symbol_g15.obj ABSOLUTE
    lld_adv_start                            0x0001fa49   Thumb Code     0  symbol_g15.obj ABSOLUTE
    lld_adv_stop                             0x00020101   Thumb Code     0  symbol_g15.obj ABSOLUTE
    lld_adv_sync_info_update                 0x00020309   Thumb Code     0  symbol_g15.obj ABSOLUTE
    lld_calc_aux_rx                          0x00020339   Thumb Code     0  symbol_g15.obj ABSOLUTE
    lld_ch_assess_data_get                   0x00020465   Thumb Code     0  symbol_g15.obj ABSOLUTE
    lld_ch_idx_get                           0x0002046d   Thumb Code     0  symbol_g15.obj ABSOLUTE
    lld_ch_map_set                           0x00020491   Thumb Code     0  symbol_g15.obj ABSOLUTE
    lld_ch_map_upd_cfm_handler               0x000204dd   Thumb Code     0  symbol_g15.obj ABSOLUTE
    lld_channel_assess                       0x00020515   Thumb Code     0  symbol_g15.obj ABSOLUTE
    lld_con_activity_offset_compute          0x0002054d   Thumb Code     0  symbol_g15.obj ABSOLUTE
    lld_con_ch_map_update                    0x000205c5   Thumb Code     0  symbol_g15.obj ABSOLUTE
    lld_con_cte_rx_dis                       0x000206ed   Thumb Code     0  symbol_g15.obj ABSOLUTE
    lld_con_cte_rx_en                        0x00020721   Thumb Code     0  symbol_g15.obj ABSOLUTE
    lld_con_cte_rx_ind_handler               0x000207e9   Thumb Code     0  symbol_g15.obj ABSOLUTE
    lld_con_cte_tx_ant_switch_config         0x00020945   Thumb Code     0  symbol_g15.obj ABSOLUTE
    lld_con_cte_tx_param_set                 0x000209e1   Thumb Code     0  symbol_g15.obj ABSOLUTE
    lld_con_current_tx_power_get             0x000209f9   Thumb Code     0  symbol_g15.obj ABSOLUTE
    lld_con_data_flow_set                    0x00020a39   Thumb Code     0  symbol_g15.obj ABSOLUTE
    lld_con_data_len_update                  0x00020aed   Thumb Code     0  symbol_g15.obj ABSOLUTE
    lld_con_data_tx                          0x00020b2d   Thumb Code     0  symbol_g15.obj ABSOLUTE
    lld_con_enc_key_load                     0x00020bdd   Thumb Code     0  symbol_g15.obj ABSOLUTE
    lld_con_estab_ind_handler                0x00020c51   Thumb Code     0  symbol_g15.obj ABSOLUTE
    lld_con_event_counter_get                0x00020c79   Thumb Code     0  symbol_g15.obj ABSOLUTE
    lld_con_init                             0x000211d9   Thumb Code     0  symbol_g15.obj ABSOLUTE
    lld_con_llcp_tx                          0x00021219   Thumb Code     0  symbol_g15.obj ABSOLUTE
    lld_con_offset_get                       0x00021325   Thumb Code     0  symbol_g15.obj ABSOLUTE
    lld_con_offset_upd_ind_handler           0x00021359   Thumb Code     0  symbol_g15.obj ABSOLUTE
    lld_con_param_upd_cfm_handler            0x00021395   Thumb Code     0  symbol_g15.obj ABSOLUTE
    lld_con_param_update                     0x00021405   Thumb Code     0  symbol_g15.obj ABSOLUTE
    lld_con_peer_sca_set                     0x00021479   Thumb Code     0  symbol_g15.obj ABSOLUTE
    lld_con_phys_update                      0x000214a1   Thumb Code     0  symbol_g15.obj ABSOLUTE
    lld_con_pref_slave_evt_dur_set           0x00021501   Thumb Code     0  symbol_g15.obj ABSOLUTE
    lld_con_pref_slave_latency_set           0x0002153d   Thumb Code     0  symbol_g15.obj ABSOLUTE
    lld_con_rssi_get                         0x00021565   Thumb Code     0  symbol_g15.obj ABSOLUTE
    lld_con_rx_enc                           0x00021a4d   Thumb Code     0  symbol_g15.obj ABSOLUTE
    lld_con_start                            0x00021dd5   Thumb Code     0  symbol_g15.obj ABSOLUTE
    lld_con_stop                             0x0002216d   Thumb Code     0  symbol_g15.obj ABSOLUTE
    lld_con_sync_info_get                    0x000221c1   Thumb Code     0  symbol_g15.obj ABSOLUTE
    lld_con_time_get                         0x00022215   Thumb Code     0  symbol_g15.obj ABSOLUTE
    lld_con_tx_enc                           0x0002224d   Thumb Code     0  symbol_g15.obj ABSOLUTE
    lld_con_tx_len_update_for_intv           0x000222ed   Thumb Code     0  symbol_g15.obj ABSOLUTE
    lld_con_tx_len_update_for_rate           0x00022329   Thumb Code     0  symbol_g15.obj ABSOLUTE
    lld_conless_cte_rx_ind_handler           0x000225e1   Thumb Code     0  symbol_g15.obj ABSOLUTE
    lld_disc_ind_handler                     0x000229dd   Thumb Code     0  symbol_g15.obj ABSOLUTE
    lld_init                                 0x00022a21   Thumb Code     0  symbol_g15.obj ABSOLUTE
    lld_init_connect_req_pack                0x00022b01   Thumb Code     0  symbol_g15.obj ABSOLUTE
    lld_init_end_ind_handler                 0x00022c19   Thumb Code     0  symbol_g15.obj ABSOLUTE
    lld_init_init                            0x00023205   Thumb Code     0  symbol_g15.obj ABSOLUTE
    lld_init_start                           0x00023921   Thumb Code     0  symbol_g15.obj ABSOLUTE
    lld_init_stop                            0x00023f95   Thumb Code     0  symbol_g15.obj ABSOLUTE
    lld_llcp_rx_ind_handler                  0x00024045   Thumb Code     0  symbol_g15.obj ABSOLUTE
    lld_llcp_tx_cfm_handler                  0x0002419d   Thumb Code     0  symbol_g15.obj ABSOLUTE
    lld_local_sca_get                        0x000241e1   Thumb Code     0  symbol_g15.obj ABSOLUTE
    lld_per_adv_ch_map_update                0x000242ad   Thumb Code     0  symbol_g15.obj ABSOLUTE
    lld_per_adv_cte_start                    0x00024569   Thumb Code     0  symbol_g15.obj ABSOLUTE
    lld_per_adv_cte_stop                     0x000245b5   Thumb Code     0  symbol_g15.obj ABSOLUTE
    lld_per_adv_data_update                  0x00024601   Thumb Code     0  symbol_g15.obj ABSOLUTE
    lld_per_adv_end_ind_handler              0x00024679   Thumb Code     0  symbol_g15.obj ABSOLUTE
    lld_per_adv_info_get                     0x00024e89   Thumb Code     0  symbol_g15.obj ABSOLUTE
    lld_per_adv_init                         0x00024f19   Thumb Code     0  symbol_g15.obj ABSOLUTE
    lld_per_adv_init_info_get                0x00024f51   Thumb Code     0  symbol_g15.obj ABSOLUTE
    lld_per_adv_list_add                     0x00024fa5   Thumb Code     0  symbol_g15.obj ABSOLUTE
    lld_per_adv_list_rem                     0x00025041   Thumb Code     0  symbol_g15.obj ABSOLUTE
    lld_per_adv_rep_ind_handler              0x000250b9   Thumb Code     0  symbol_g15.obj ABSOLUTE
    lld_per_adv_rx_end_ind_handler           0x00025429   Thumb Code     0  symbol_g15.obj ABSOLUTE
    lld_per_adv_start                        0x00025655   Thumb Code     0  symbol_g15.obj ABSOLUTE
    lld_per_adv_stop                         0x000258a5   Thumb Code     0  symbol_g15.obj ABSOLUTE
    lld_per_adv_sync_info_get                0x00025935   Thumb Code     0  symbol_g15.obj ABSOLUTE
    lld_phy_upd_cfm_handler                  0x00025989   Thumb Code     0  symbol_g15.obj ABSOLUTE
    lld_ral_search                           0x000259c1   Thumb Code     0  symbol_g15.obj ABSOLUTE
    lld_read_clock                           0x00025a1d   Thumb Code     0  symbol_g15.obj ABSOLUTE
    lld_res_list_add                         0x00025a2d   Thumb Code     0  symbol_g15.obj ABSOLUTE
    lld_res_list_clear                       0x00025ae1   Thumb Code     0  symbol_g15.obj ABSOLUTE
    lld_res_list_local_rpa_get               0x00025b01   Thumb Code     0  symbol_g15.obj ABSOLUTE
    lld_res_list_peer_rpa_get                0x00025b35   Thumb Code     0  symbol_g15.obj ABSOLUTE
    lld_res_list_peer_update                 0x00025b6d   Thumb Code     0  symbol_g15.obj ABSOLUTE
    lld_res_list_priv_mode_update            0x00025b89   Thumb Code     0  symbol_g15.obj ABSOLUTE
    lld_res_list_rem                         0x00025bad   Thumb Code     0  symbol_g15.obj ABSOLUTE
    lld_rpa_renew                            0x00025bc5   Thumb Code     0  symbol_g15.obj ABSOLUTE
    lld_rxdesc_check                         0x00025d1d   Thumb Code     0  symbol_g15.obj ABSOLUTE
    lld_rxdesc_free                          0x00025d49   Thumb Code     0  symbol_g15.obj ABSOLUTE
    lld_scan_create_sync                     0x00026071   Thumb Code     0  symbol_g15.obj ABSOLUTE
    lld_scan_create_sync_cancel              0x000260b9   Thumb Code     0  symbol_g15.obj ABSOLUTE
    lld_scan_end_ind_handler                 0x000261e9   Thumb Code     0  symbol_g15.obj ABSOLUTE
    lld_scan_init                            0x000266c5   Thumb Code     0  symbol_g15.obj ABSOLUTE
    lld_scan_params_update                   0x00026715   Thumb Code     0  symbol_g15.obj ABSOLUTE
    lld_scan_req_ind_handler                 0x000272c1   Thumb Code     0  symbol_g15.obj ABSOLUTE
    lld_scan_restart                         0x0002730d   Thumb Code     0  symbol_g15.obj ABSOLUTE
    lld_scan_start                           0x00027371   Thumb Code     0  symbol_g15.obj ABSOLUTE
    lld_scan_stop                            0x00027831   Thumb Code     0  symbol_g15.obj ABSOLUTE
    lld_sync_ch_map_update                   0x000279c5   Thumb Code     0  symbol_g15.obj ABSOLUTE
    lld_sync_cte_start                       0x00027a39   Thumb Code     0  symbol_g15.obj ABSOLUTE
    lld_sync_cte_stop                        0x00027a81   Thumb Code     0  symbol_g15.obj ABSOLUTE
    lld_sync_info_get                        0x00027ca5   Thumb Code     0  symbol_g15.obj ABSOLUTE
    lld_sync_init                            0x00027d31   Thumb Code     0  symbol_g15.obj ABSOLUTE
    lld_sync_start                           0x00028545   Thumb Code     0  symbol_g15.obj ABSOLUTE
    lld_sync_start_req_handler               0x00028701   Thumb Code     0  symbol_g15.obj ABSOLUTE
    lld_sync_stop                            0x000287e5   Thumb Code     0  symbol_g15.obj ABSOLUTE
    lld_test_end_ind_handler                 0x00028859   Thumb Code     0  symbol_g15.obj ABSOLUTE
    lld_test_init                            0x00028af9   Thumb Code     0  symbol_g15.obj ABSOLUTE
    lld_test_start                           0x00028b25   Thumb Code     0  symbol_g15.obj ABSOLUTE
    lld_test_stop                            0x00028fa1   Thumb Code     0  symbol_g15.obj ABSOLUTE
    lld_white_list_add                       0x00029059   Thumb Code     0  symbol_g15.obj ABSOLUTE
    lld_white_list_rem                       0x000290e1   Thumb Code     0  symbol_g15.obj ABSOLUTE
    llhwc_phy_initialization                 0x00029145   Thumb Code     0  symbol_g15.obj ABSOLUTE
    llhwc_phy_prerx                          0x00029315   Thumb Code     0  symbol_g15.obj ABSOLUTE
    llm_activity_free_get                    0x00029401   Thumb Code     0  symbol_g15.obj ABSOLUTE
    llm_adv_act_id_get                       0x00029459   Thumb Code     0  symbol_g15.obj ABSOLUTE
    llm_adv_hdl_to_id                        0x000294b5   Thumb Code     0  symbol_g15.obj ABSOLUTE
    llm_adv_set_id_get                       0x00029599   Thumb Code     0  symbol_g15.obj ABSOLUTE
    llm_ch_map_update                        0x00029705   Thumb Code     0  symbol_g15.obj ABSOLUTE
    llm_ch_map_update_ind_handler            0x00029845   Thumb Code     0  symbol_g15.obj ABSOLUTE
    llm_clk_acc_set                          0x000298b1   Thumb Code     0  symbol_g15.obj ABSOLUTE
    llm_cmd_cmp_send                         0x000298e1   Thumb Code     0  symbol_g15.obj ABSOLUTE
    llm_cmd_stat_send                        0x000298fd   Thumb Code     0  symbol_g15.obj ABSOLUTE
    llm_dev_list_empty_entry                 0x00029919   Thumb Code     0  symbol_g15.obj ABSOLUTE
    llm_dev_list_search                      0x0002993d   Thumb Code     0  symbol_g15.obj ABSOLUTE
    llm_hci_command_handler                  0x000299e9   Thumb Code     0  symbol_g15.obj ABSOLUTE
    llm_init                                 0x00029a1d   Thumb Code     0  symbol_g15.obj ABSOLUTE
    llm_is_dev_connected                     0x00029b91   Thumb Code     0  symbol_g15.obj ABSOLUTE
    llm_is_dev_synced                        0x00029be5   Thumb Code     0  symbol_g15.obj ABSOLUTE
    llm_le_evt_mask_check                    0x00029cd5   Thumb Code     0  symbol_g15.obj ABSOLUTE
    llm_le_features_get                      0x00029cf9   Thumb Code     0  symbol_g15.obj ABSOLUTE
    llm_link_disc                            0x00029d01   Thumb Code     0  symbol_g15.obj ABSOLUTE
    llm_master_ch_map_get                    0x00029ddd   Thumb Code     0  symbol_g15.obj ABSOLUTE
    llm_per_adv_sync                         0x00029e21   Thumb Code     0  symbol_g15.obj ABSOLUTE
    llm_plan_elt_get                         0x00029efd   Thumb Code     0  symbol_g15.obj ABSOLUTE
    llm_ral_get                              0x00029f4d   Thumb Code     0  symbol_g15.obj ABSOLUTE
    llm_ral_is_empty                         0x00029f55   Thumb Code     0  symbol_g15.obj ABSOLUTE
    llm_ral_search                           0x00029f7d   Thumb Code     0  symbol_g15.obj ABSOLUTE
    llm_rx_path_comp_get                     0x00029fd5   Thumb Code     0  symbol_g15.obj ABSOLUTE
    llm_scan_period_to_handler               0x00029fe1   Thumb Code     0  symbol_g15.obj ABSOLUTE
    llm_scan_sync_info_get                   0x0002a0e5   Thumb Code     0  symbol_g15.obj ABSOLUTE
    llm_tx_path_comp_get                     0x0002a155   Thumb Code     0  symbol_g15.obj ABSOLUTE
    lpuart_init                              0x0002a161   Thumb Code     0  symbol_g15.obj ABSOLUTE
    lpuart_send_array                        0x0002a215   Thumb Code     0  symbol_g15.obj ABSOLUTE
    notEqual256                              0x0002a3a9   Thumb Code     0  symbol_g15.obj ABSOLUTE
    phy_upd_proc_start                       0x0002a731   Thumb Code     0  symbol_g15.obj ABSOLUTE
    platform_reset                           0x0002a785   Thumb Code     0  symbol_g15.obj ABSOLUTE
    pmu_hck_config                           0x0002a7bd   Thumb Code     0  symbol_g15.obj ABSOLUTE
    recv_more_data                           0x0002aa05   Thumb Code     0  symbol_g15.obj ABSOLUTE
    reinit_params                            0x0002aa81   Thumb Code     0  symbol_g15.obj ABSOLUTE
    rf_init                                  0x0002aae1   Thumb Code     0  symbol_g15.obj ABSOLUTE
    rwble_hl_init                            0x0002ac85   Thumb Code     0  symbol_g15.obj ABSOLUTE
    rwble_init                               0x0002aca1   Thumb Code     0  symbol_g15.obj ABSOLUTE
    rwble_int_init                           0x0002acdd   Thumb Code     0  symbol_g15.obj ABSOLUTE
    rwble_isr                                0x0002ae31   Thumb Code     0  symbol_g15.obj ABSOLUTE
    rwip_active_check                        0x0002ae4d   Thumb Code     0  symbol_g15.obj ABSOLUTE
    rwip_aes_encrypt                         0x0002ae61   Thumb Code     0  symbol_g15.obj ABSOLUTE
    rwip_clockn_isr                          0x0002af21   Thumb Code     0  symbol_g15.obj ABSOLUTE
    rwip_crypt_isr                           0x0002afe5   Thumb Code     0  symbol_g15.obj ABSOLUTE
    rwip_driver_init                         0x0002b025   Thumb Code     0  symbol_g15.obj ABSOLUTE
    rwip_eif_get                             0x0002b16d   Thumb Code     0  symbol_g15.obj ABSOLUTE
    rwip_fifo_isr                            0x0002b17d   Thumb Code     0  symbol_g15.obj ABSOLUTE
    rwip_finetgt_isr                         0x0002b195   Thumb Code     0  symbol_g15.obj ABSOLUTE
    rwip_prevent_sleep_clear                 0x0002b2b5   Thumb Code     0  symbol_g15.obj ABSOLUTE
    rwip_prevent_sleep_set                   0x0002b2d1   Thumb Code     0  symbol_g15.obj ABSOLUTE
    rwip_schedule                            0x0002b3a1   Thumb Code     0  symbol_g15.obj ABSOLUTE
    rwip_sw_int_req                          0x0002b61d   Thumb Code     0  symbol_g15.obj ABSOLUTE
    rwip_sw_isr                              0x0002b63d   Thumb Code     0  symbol_g15.obj ABSOLUTE
    rwip_time_get                            0x0002b65d   Thumb Code     0  symbol_g15.obj ABSOLUTE
    rwip_timer_1ms_set                       0x0002b69d   Thumb Code     0  symbol_g15.obj ABSOLUTE
    rwip_timer_hs_set                        0x0002b6f1   Thumb Code     0  symbol_g15.obj ABSOLUTE
    rwip_timer_hus_set                       0x0002b721   Thumb Code     0  symbol_g15.obj ABSOLUTE
    rwip_timestamptgt1_isr                   0x0002b761   Thumb Code     0  symbol_g15.obj ABSOLUTE
    rwip_timestamptgt2_isr                   0x0002b78d   Thumb Code     0  symbol_g15.obj ABSOLUTE
    sch_alarm_init                           0x0002b7d5   Thumb Code     0  symbol_g15.obj ABSOLUTE
    sch_alarm_set                            0x0002b859   Thumb Code     0  symbol_g15.obj ABSOLUTE
    sch_alarm_timer_isr                      0x0002b8f1   Thumb Code     0  symbol_g15.obj ABSOLUTE
    sch_arb_elt_cancel                       0x0002ba25   Thumb Code     0  symbol_g15.obj ABSOLUTE
    sch_arb_event_start_isr                  0x0002bb29   Thumb Code     0  symbol_g15.obj ABSOLUTE
    sch_arb_init                             0x0002bbed   Thumb Code     0  symbol_g15.obj ABSOLUTE
    sch_arb_insert                           0x0002bc19   Thumb Code     0  symbol_g15.obj ABSOLUTE
    sch_arb_remove                           0x0002bec5   Thumb Code     0  symbol_g15.obj ABSOLUTE
    sch_arb_sw_isr                           0x0002bf29   Thumb Code     0  symbol_g15.obj ABSOLUTE
    sch_plan_chk                             0x0002bf5d   Thumb Code     0  symbol_g15.obj ABSOLUTE
    sch_plan_init                            0x0002bf6d   Thumb Code     0  symbol_g15.obj ABSOLUTE
    sch_plan_rem                             0x0002c231   Thumb Code     0  symbol_g15.obj ABSOLUTE
    sch_plan_req                             0x0002c241   Thumb Code     0  symbol_g15.obj ABSOLUTE
    sch_plan_set                             0x0002c30d   Thumb Code     0  symbol_g15.obj ABSOLUTE
    sch_prog_end_isr                         0x0002c381   Thumb Code     0  symbol_g15.obj ABSOLUTE
    sch_prog_fifo_isr                        0x0002c3ed   Thumb Code     0  symbol_g15.obj ABSOLUTE
    sch_prog_init                            0x0002c4d9   Thumb Code     0  symbol_g15.obj ABSOLUTE
    sch_prog_push                            0x0002c519   Thumb Code     0  symbol_g15.obj ABSOLUTE
    sch_prog_skip_isr                        0x0002c651   Thumb Code     0  symbol_g15.obj ABSOLUTE
    sch_slice_bg_add                         0x0002c6c5   Thumb Code     0  symbol_g15.obj ABSOLUTE
    sch_slice_bg_remove                      0x0002c6dd   Thumb Code     0  symbol_g15.obj ABSOLUTE
    sch_slice_compute                        0x0002c6f5   Thumb Code     0  symbol_g15.obj ABSOLUTE
    sch_slice_fg_add                         0x0002c7a1   Thumb Code     0  symbol_g15.obj ABSOLUTE
    sch_slice_fg_remove                      0x0002c7c1   Thumb Code     0  symbol_g15.obj ABSOLUTE
    sch_slice_init                           0x0002c7f1   Thumb Code     0  symbol_g15.obj ABSOLUTE
    sch_slice_per_add                        0x0002c835   Thumb Code     0  symbol_g15.obj ABSOLUTE
    sch_slice_per_remove                     0x0002c85d   Thumb Code     0  symbol_g15.obj ABSOLUTE
    sleep_condition_check                    0x0002c885   Thumb Code     0  symbol_g15.obj ABSOLUTE
    soft_flow_ctrl_init                      0x0002c91d   Thumb Code     0  symbol_g15.obj ABSOLUTE
    soft_flow_ctrl_tx_process                0x0002c969   Thumb Code     0  symbol_g15.obj ABSOLUTE
    specialModP256                           0x0002c9dd   Thumb Code     0  symbol_g15.obj ABSOLUTE
    spis_init                                0x0002cad5   Thumb Code     0  symbol_g15.obj ABSOLUTE
    stage_idle_irq_handler                   0x0002cb39   Thumb Code     0  symbol_g15.obj ABSOLUTE
    stage_idle_reset                         0x0002cbb5   Thumb Code     0  symbol_g15.obj ABSOLUTE
    stage_rx_irq_handler                     0x0002cc25   Thumb Code     0  symbol_g15.obj ABSOLUTE
    stage_tx_irq_handler                     0x0002cc41   Thumb Code     0  symbol_g15.obj ABSOLUTE
    stage_tx_len_irq_handler                 0x0002cd21   Thumb Code     0  symbol_g15.obj ABSOLUTE
    user_exe_operation                       0x0002cd89   Thumb Code     0  symbol_g15.obj ABSOLUTE
    user_prf_itf_get                         0x0002d011   Thumb Code     0  symbol_g15.obj ABSOLUTE
    utils_data_ready_off                     0x0002d045   Thumb Code     0  symbol_g15.obj ABSOLUTE
    utils_data_ready_on                      0x0002d055   Thumb Code     0  symbol_g15.obj ABSOLUTE
    utils_flow_off                           0x0002d085   Thumb Code     0  symbol_g15.obj ABSOLUTE
    utils_flow_on                            0x0002d0b1   Thumb Code     0  symbol_g15.obj ABSOLUTE
    utils_get_tx_len                         0x0002d0d9   Thumb Code     0  symbol_g15.obj ABSOLUTE
    utils_hci_cmd_check                      0x0002d121   Thumb Code     0  symbol_g15.obj ABSOLUTE
    utils_hci_cmd_reset                      0x0002d1b9   Thumb Code     0  symbol_g15.obj ABSOLUTE
    utils_io_init                            0x0002d22d   Thumb Code     0  symbol_g15.obj ABSOLUTE
    utils_io_sleep                           0x0002d289   Thumb Code     0  symbol_g15.obj ABSOLUTE
    utils_read                               0x0002d33d   Thumb Code     0  symbol_g15.obj ABSOLUTE
    utils_read_wakeup_stat                   0x0002d4c9   Thumb Code     0  symbol_g15.obj ABSOLUTE
    utils_wakeup_int_enable                  0x0002d4d9   Thumb Code     0  symbol_g15.obj ABSOLUTE
    utils_write                              0x0002d521   Thumb Code     0  symbol_g15.obj ABSOLUTE
    wakeup_irq_handler                       0x0002d691   Thumb Code     0  symbol_g15.obj ABSOLUTE
    one_bits                                 0x0002d740   Data           0  symbol_g15.obj ABSOLUTE
    co_sca2ppm                               0x0002d750   Data           0  symbol_g15.obj ABSOLUTE
    co_null_bdaddr                           0x0002d760   Data           0  symbol_g15.obj ABSOLUTE
    co_null_key                              0x0002d766   Data           0  symbol_g15.obj ABSOLUTE
    co_rate_to_phy                           0x0002d776   Data           0  symbol_g15.obj ABSOLUTE
    co_phy_to_rate                           0x0002d77b   Data           0  symbol_g15.obj ABSOLUTE
    co_phy_mask_to_value                     0x0002d77f   Data           0  symbol_g15.obj ABSOLUTE
    co_phy_value_to_mask                     0x0002d784   Data           0  symbol_g15.obj ABSOLUTE
    co_rate_to_phy_mask                      0x0002d788   Data           0  symbol_g15.obj ABSOLUTE
    co_phy_mask_to_rate                      0x0002d78c   Data           0  symbol_g15.obj ABSOLUTE
    rwip_priority                            0x0002d791   Data           0  symbol_g15.obj ABSOLUTE
    aes_cmac_zero                            0x0002d7a7   Data           0  symbol_g15.obj ABSOLUTE
    BasePoint_x_256                          0x0002d7b8   Data           0  symbol_g15.obj ABSOLUTE
    BasePoint_y_256                          0x0002d7d8   Data           0  symbol_g15.obj ABSOLUTE
    maxSecretKey_256                         0x0002d7f8   Data           0  symbol_g15.obj ABSOLUTE
    DebugE256PublicKey_x                     0x0002d818   Data           0  symbol_g15.obj ABSOLUTE
    DebugE256PublicKey_y                     0x0002d838   Data           0  symbol_g15.obj ABSOLUTE
    DebugE256SecretKey                       0x0002d858   Data           0  symbol_g15.obj ABSOLUTE
    coef_B                                   0x0002d878   Data           0  symbol_g15.obj ABSOLUTE
    bigHexP256                               0x0002d8a4   Data           0  symbol_g15.obj ABSOLUTE
    veryBigHexP256                           0x0002d8d0   Data           0  symbol_g15.obj ABSOLUTE
    ecc_Jacobian_InfinityPoint256            0x0002d920   Data           0  symbol_g15.obj ABSOLUTE
    ECC_4Win_Look_up_table                   0x0002d9a4   Data           0  symbol_g15.obj ABSOLUTE
    TASK_DESC_LLC                            0x0002e4bc   Data           0  symbol_g15.obj ABSOLUTE
    LLM_AA_CT2                               0x0002e4c8   Data           0  symbol_g15.obj ABSOLUTE
    LLM_AA_CT1                               0x0002e4ca   Data           0  symbol_g15.obj ABSOLUTE
    connect_req_dur_tab                      0x0002e4d0   Data           0  symbol_g15.obj ABSOLUTE
    byte_tx_time                             0x0002e4d8   Data           0  symbol_g15.obj ABSOLUTE
    fixed_tx_time                            0x0002e4e0   Data           0  symbol_g15.obj ABSOLUTE
    lld_init_max_aux_dur_tab                 0x0002e4e8   Data           0  symbol_g15.obj ABSOLUTE
    lld_scan_map_legacy_pdu_to_evt_type      0x0002e4f0   Data           0  symbol_g15.obj ABSOLUTE
    lld_scan_max_aux_dur_tab                 0x0002e4f8   Data           0  symbol_g15.obj ABSOLUTE
    lld_sync_max_aux_dur_tab                 0x0002e500   Data           0  symbol_g15.obj ABSOLUTE
    hci_cmd_desc_tab_lk_ctrl                 0x0002e8e4   Data           0  symbol_g15.obj ABSOLUTE
    hci_cmd_desc_tab_ctrl_bb                 0x0002e8fc   Data           0  symbol_g15.obj ABSOLUTE
    hci_cmd_desc_tab_info_par                0x0002e968   Data           0  symbol_g15.obj ABSOLUTE
    hci_cmd_desc_tab_stat_par                0x0002e998   Data           0  symbol_g15.obj ABSOLUTE
    hci_cmd_desc_tab_le                      0x0002e9a4   Data           0  symbol_g15.obj ABSOLUTE
    hci_cmd_desc_tab_vs                      0x0002ee0c   Data           0  symbol_g15.obj ABSOLUTE
    hci_cmd_desc_root_tab                    0x0002ee48   Data           0  symbol_g15.obj ABSOLUTE
    hci_evt_desc_tab                         0x0002ee78   Data           0  symbol_g15.obj ABSOLUTE
    hci_evt_le_desc_tab                      0x0002eec0   Data           0  symbol_g15.obj ABSOLUTE
    utils_api                                0x0002ef90   Data           0  symbol_g15.obj ABSOLUTE
    ambiq_speed_att_db_128                   0x0002f148   Data           0  symbol_g15.obj ABSOLUTE
    attc_handlers                            0x0002f3f8   Data           0  symbol_g15.obj ABSOLUTE
    atts_handlers                            0x0002f434   Data           0  symbol_g15.obj ABSOLUTE
    TASK_DESC_GATTC                          0x0002f514   Data           0  symbol_g15.obj ABSOLUTE
    TASK_DESC_GATTM                          0x0002f530   Data           0  symbol_g15.obj ABSOLUTE
    gapc_sig_handlers                        0x0002f62c   Data           0  symbol_g15.obj ABSOLUTE
    TASK_DESC_GAPC                           0x0002f7bc   Data           0  symbol_g15.obj ABSOLUTE
    TASK_DESC_GAPM                           0x0002fa08   Data           0  symbol_g15.obj ABSOLUTE
    l2cc_sig_handlers                        0x0002fb28   Data           0  symbol_g15.obj ABSOLUTE
    TASK_DESC_L2CC                           0x0002fb88   Data           0  symbol_g15.obj ABSOLUTE
    TASK_DESC_AHI                            0x0002fb9c   Data           0  symbol_g15.obj ABSOLUTE
    __Vectors                                0x01000000   Data           4  startup_n32wb03x.o(RESET)
    __Vectors_End                            0x010000c0   Data           0  startup_n32wb03x.o(RESET)
    __main                                   0x010000c1   Thumb Code     0  entry.o(.ARM.Collect$$$$00000000)
    _main_stk                                0x010000c1   Thumb Code     0  entry2.o(.ARM.Collect$$$$00000001)
    _main_scatterload                        0x010000c5   Thumb Code     0  entry5.o(.ARM.Collect$$$$00000004)
    __main_after_scatterload                 0x010000c9   Thumb Code     0  entry5.o(.ARM.Collect$$$$00000004)
    _main_clock                              0x010000c9   Thumb Code     0  entry7b.o(.ARM.Collect$$$$00000008)
    _main_cpp_init                           0x010000c9   Thumb Code     0  entry8b.o(.ARM.Collect$$$$0000000A)
    _main_init                               0x010000c9   Thumb Code     0  entry9a.o(.ARM.Collect$$$$0000000B)
    __rt_final_cpp                           0x010000d1   Thumb Code     0  entry10a.o(.ARM.Collect$$$$0000000D)
    __rt_final_exit                          0x010000d1   Thumb Code     0  entry11a.o(.ARM.Collect$$$$0000000F)
    __asm___17_system_n32wb03x_c_f233b82c____REV16 0x010000d5   Thumb Code     4  system_n32wb03x.o(.emb_text)
    __asm___17_system_n32wb03x_c_f233b82c____REVSH 0x010000d9   Thumb Code     4  system_n32wb03x.o(.emb_text)
    system_delay_cycles                      0x010000dd   Thumb Code     6  system_n32wb03x.o(.emb_text)
    Reset_Handler                            0x010000e5   Thumb Code     8  startup_n32wb03x.o(.text)
    NMI_Handler                              0x010000ed   Thumb Code     2  startup_n32wb03x.o(.text)
    HardFault_Handler                        0x010000ef   Thumb Code     2  startup_n32wb03x.o(.text)
    SVC_Handler                              0x010000f1   Thumb Code     2  startup_n32wb03x.o(.text)
    PendSV_Handler                           0x010000f3   Thumb Code     2  startup_n32wb03x.o(.text)
    ADC_IRQHandler                           0x010000f7   Thumb Code     0  startup_n32wb03x.o(.text)
    BLE_CRYPT_IRQHandler                     0x010000f7   Thumb Code     0  startup_n32wb03x.o(.text)
    BLE_ERROR_IRQHandler                     0x010000f7   Thumb Code     0  startup_n32wb03x.o(.text)
    BLE_FIFO_IRQHandler                      0x010000f7   Thumb Code     0  startup_n32wb03x.o(.text)
    BLE_FINETGT_IRQHandler                   0x010000f7   Thumb Code     0  startup_n32wb03x.o(.text)
    BLE_HSLOT_IRQHandler                     0x010000f7   Thumb Code     0  startup_n32wb03x.o(.text)
    BLE_SLP_IRQHandler                       0x010000f7   Thumb Code     0  startup_n32wb03x.o(.text)
    BLE_SW_IRQHandler                        0x010000f7   Thumb Code     0  startup_n32wb03x.o(.text)
    BLE_TIMESTAMP_TGT1_IRQHandler            0x010000f7   Thumb Code     0  startup_n32wb03x.o(.text)
    BLE_TIMESTAMP_TGT2_IRQHandler            0x010000f7   Thumb Code     0  startup_n32wb03x.o(.text)
    DMA_Channel5_IRQHandler                  0x010000f7   Thumb Code     0  startup_n32wb03x.o(.text)
    EXTI0_1_IRQHandler                       0x010000f7   Thumb Code     0  startup_n32wb03x.o(.text)
    EXTI2_3_IRQHandler                       0x010000f7   Thumb Code     0  startup_n32wb03x.o(.text)
    EXTI4_12_IRQHandler                      0x010000f7   Thumb Code     0  startup_n32wb03x.o(.text)
    FLASH_IRQHandler                         0x010000f7   Thumb Code     0  startup_n32wb03x.o(.text)
    I2C1_IRQHandler                          0x010000f7   Thumb Code     0  startup_n32wb03x.o(.text)
    IRC_IRQHandler                           0x010000f7   Thumb Code     0  startup_n32wb03x.o(.text)
    KEYSCAN_IRQHandler                       0x010000f7   Thumb Code     0  startup_n32wb03x.o(.text)
    LPUART1_IRQHandler                       0x010000f7   Thumb Code     0  startup_n32wb03x.o(.text)
    RCC_IRQHandler                           0x010000f7   Thumb Code     0  startup_n32wb03x.o(.text)
    RESERVED_IRQHandler                      0x010000f7   Thumb Code     0  startup_n32wb03x.o(.text)
    RTC_IRQHandler                           0x010000f7   Thumb Code     0  startup_n32wb03x.o(.text)
    SPI1_IRQHandler                          0x010000f7   Thumb Code     0  startup_n32wb03x.o(.text)
    SPI2_IRQHandler                          0x010000f7   Thumb Code     0  startup_n32wb03x.o(.text)
    TIM1_BRK_UP_TRG_COM_IRQHandler           0x010000f7   Thumb Code     0  startup_n32wb03x.o(.text)
    TIM1_CC_IRQHandler                       0x010000f7   Thumb Code     0  startup_n32wb03x.o(.text)
    TIM3_IRQHandler                          0x010000f7   Thumb Code     0  startup_n32wb03x.o(.text)
    TIM6_IRQHandler                          0x010000f7   Thumb Code     0  startup_n32wb03x.o(.text)
    USART2_IRQHandler                        0x010000f7   Thumb Code     0  startup_n32wb03x.o(.text)
    WWDG_IRQHandler                          0x010000f7   Thumb Code     0  startup_n32wb03x.o(.text)
    __aeabi_uidiv                            0x01000101   Thumb Code     0  uidiv.o(.text)
    __aeabi_uidivmod                         0x01000101   Thumb Code    44  uidiv.o(.text)
    __aeabi_uldivmod                         0x0100012d   Thumb Code    96  uldiv.o(.text)
    rand                                     0x0100018d   Thumb Code    18  rand.o(.text)
    srand                                    0x0100019f   Thumb Code     6  rand.o(.text)
    __aeabi_memcpy                           0x010001b1   Thumb Code    36  memcpya.o(.text)
    __aeabi_memcpy4                          0x010001b1   Thumb Code     0  memcpya.o(.text)
    __aeabi_memcpy8                          0x010001b1   Thumb Code     0  memcpya.o(.text)
    __aeabi_memset                           0x010001d5   Thumb Code    14  memseta.o(.text)
    __aeabi_memset4                          0x010001d5   Thumb Code     0  memseta.o(.text)
    __aeabi_memset8                          0x010001d5   Thumb Code     0  memseta.o(.text)
    __aeabi_memclr                           0x010001e3   Thumb Code     4  memseta.o(.text)
    __aeabi_memclr4                          0x010001e3   Thumb Code     0  memseta.o(.text)
    __aeabi_memclr8                          0x010001e3   Thumb Code     0  memseta.o(.text)
    _memset$wrapper                          0x010001e7   Thumb Code    18  memseta.o(.text)
    memcmp                                   0x010001f9   Thumb Code    26  memcmp.o(.text)
    __aeabi_dmul                             0x01000215   Thumb Code   202  dmul.o(.text)
    __aeabi_ddiv                             0x010002e5   Thumb Code   234  ddiv.o(.text)
    __aeabi_ui2d                             0x010003d5   Thumb Code    24  dfltui.o(.text)
    __aeabi_ul2d                             0x010003f1   Thumb Code    22  dfltul.o(.text)
    __aeabi_d2ulz                            0x0100040d   Thumb Code    54  dfixul.o(.text)
    __aeabi_llsl                             0x0100044d   Thumb Code    32  llshl.o(.text)
    _ll_shift_l                              0x0100044d   Thumb Code     0  llshl.o(.text)
    __aeabi_llsr                             0x0100046d   Thumb Code    34  llushr.o(.text)
    _ll_ushift_r                             0x0100046d   Thumb Code     0  llushr.o(.text)
    __I$use$fp                               0x0100048f   Thumb Code     0  iusefp.o(.text)
    _double_round                            0x0100048f   Thumb Code    26  depilogue.o(.text)
    _double_epilogue                         0x010004a9   Thumb Code   164  depilogue.o(.text)
    __scatterload                            0x0100054d   Thumb Code    28  init.o(.text)
    __scatterload_rt2                        0x0100054d   Thumb Code     0  init.o(.text)
    __decompress                             0x01000571   Thumb Code     0  __dclz77c.o(.text)
    __decompress2                            0x01000571   Thumb Code    96  __dclz77c.o(.text)
    Long Thumb to Thumb Veneer to __ARM_common_memcpy1_6 0x010005d1   Thumb Code    12  anon$$obj.o(Veneer$$Code)
    Long Thumb to Thumb Veneer to attmdb_get_attribute 0x010005dd   Thumb Code    12  anon$$obj.o(Veneer$$Code)
    Long Thumb to Thumb Veneer to attmdb_uuid16_comp 0x010005e9   Thumb Code    12  anon$$obj.o(Veneer$$Code)
    Long Thumb to Thumb Veneer to attm_svc_create_db 0x010005f5   Thumb Code    12  anon$$obj.o(Veneer$$Code)
    Long Thumb to Thumb Veneer to attmdb_att_get_permission 0x01000601   Thumb Code    12  anon$$obj.o(Veneer$$Code)
    Long Thumb to Thumb Veneer to attmdb_get_service 0x0100060d   Thumb Code    12  anon$$obj.o(Veneer$$Code)
    Long Thumb to Thumb Veneer to attmdb_get_uuid 0x01000619   Thumb Code    12  anon$$obj.o(Veneer$$Code)
    Long Thumb to Thumb Veneer to attm_svc_create_db_128 0x01000625   Thumb Code    12  anon$$obj.o(Veneer$$Code)
    Long Thumb to Thumb Veneer to ahi_init   0x01000631   Thumb Code    12  anon$$obj.o(Veneer$$Code)
    Long Thumb to Thumb Veneer to __ARM_common_ll_muluu 0x0100063d   Thumb Code    12  anon$$obj.o(Veneer$$Code)
    BuzzerInit                               0x01000649   Thumb Code    72  bsp_buzzer.o(i.BuzzerInit)
    BuzzerOff                                0x0100069d   Thumb Code     8  bsp_buzzer.o(i.BuzzerOff)
    BuzzerOn                                 0x010006a5   Thumb Code     8  bsp_buzzer.o(i.BuzzerOn)
    CRC16_CalcBufCrc                         0x010006ad   Thumb Code    28  n32wb03x_crc.o(i.CRC16_CalcBufCrc)
    DMA_Channel1_2_3_4_IRQHandler            0x010006cd   Thumb Code    90  bsp_usart.o(i.DMA_Channel1_2_3_4_IRQHandler)
    DMA_ClearFlag                            0x01000735   Thumb Code     4  n32wb03x_dma.o(i.DMA_ClearFlag)
    DMA_EnableChannel                        0x01000739   Thumb Code    20  n32wb03x_dma.o(i.DMA_EnableChannel)
    DMA_GetCurrDataCounter                   0x01000751   Thumb Code     6  n32wb03x_dma.o(i.DMA_GetCurrDataCounter)
    DMA_GetFlagStatus                        0x01000757   Thumb Code    14  n32wb03x_dma.o(i.DMA_GetFlagStatus)
    DMA_Init                                 0x01000765   Thumb Code    58  n32wb03x_dma.o(i.DMA_Init)
    EXTI_ClrITPendBit                        0x010007a5   Thumb Code     6  n32wb03x_exti.o(i.EXTI_ClrITPendBit)
    EXTI_GetITStatus                         0x010007b1   Thumb Code    24  n32wb03x_exti.o(i.EXTI_GetITStatus)
    EXTI_InitPeripheral                      0x010007cd   Thumb Code   108  n32wb03x_exti.o(i.EXTI_InitPeripheral)
    GPIO_InitPeripheral                      0x0100083d   Thumb Code   184  n32wb03x_gpio.o(i.GPIO_InitPeripheral)
    GPIO_InitStruct                          0x010008f5   Thumb Code    22  n32wb03x_gpio.o(i.GPIO_InitStruct)
    GPIO_ResetBits                           0x01000911   Thumb Code     4  n32wb03x_gpio.o(i.GPIO_ResetBits)
    GPIO_SetBits                             0x01000915   Thumb Code     4  n32wb03x_gpio.o(i.GPIO_SetBits)
    GPIO_TogglePin                           0x01000919   Thumb Code     8  n32wb03x_gpio.o(i.GPIO_TogglePin)
    LPUART_ClrFlag                           0x01000921   Thumb Code     4  n32wb03x_lpuart.o(i.LPUART_ClrFlag)
    LPUART_DeInit                            0x01000925   Thumb Code    24  n32wb03x_lpuart.o(i.LPUART_DeInit)
    LPUART_GetFlagStatus                     0x01000945   Thumb Code    14  n32wb03x_lpuart.o(i.LPUART_GetFlagStatus)
    LPUART_Init                              0x01000955   Thumb Code   192  n32wb03x_lpuart.o(i.LPUART_Init)
    LPUART_SendData                          0x01000a25   Thumb Code     4  n32wb03x_lpuart.o(i.LPUART_SendData)
    LedBlink                                 0x01000a29   Thumb Code     8  bsp_led.o(i.LedBlink)
    LedInitSingle                            0x01000a31   Thumb Code    72  bsp_led.o(i.LedInitSingle)
    LedOff                                   0x01000a85   Thumb Code     8  bsp_led.o(i.LedOff)
    LedOn                                    0x01000a8d   Thumb Code     8  bsp_led.o(i.LedOn)
    Led_Init                                 0x01000a95   Thumb Code    30  bsp_led.o(i.Led_Init)
    OTPTrim_Read                             0x01000abd   Thumb Code   186  system_n32wb03x.o(i.OTPTrim_Read)
    Qflash_Erase_Sector                      0x01000b89   Thumb Code    30  n32wb03x_qflash.o(i.Qflash_Erase_Sector)
    Qflash_Init                              0x01000bad   Thumb Code    30  n32wb03x_qflash.o(i.Qflash_Init)
    Qflash_Write                             0x01000be5   Thumb Code    30  n32wb03x_qflash.o(i.Qflash_Write)
    RCC_ConfigLpuartClk                      0x01000c09   Thumb Code    24  n32wb03x_rcc.o(i.RCC_ConfigLpuartClk)
    RCC_EnableAHBPeriphClk                   0x01000c25   Thumb Code    18  n32wb03x_rcc.o(i.RCC_EnableAHBPeriphClk)
    RCC_EnableAPB2PeriphClk                  0x01000c3d   Thumb Code    18  n32wb03x_rcc.o(i.RCC_EnableAPB2PeriphClk)
    RCC_EnableLpuartClk                      0x01000c55   Thumb Code    20  n32wb03x_rcc.o(i.RCC_EnableLpuartClk)
    RCC_GetClocksFreqValue                   0x01000c6d   Thumb Code    90  n32wb03x_rcc.o(i.RCC_GetClocksFreqValue)
    RCC_GetLpuartClkSrc                      0x01000ce1   Thumb Code    10  n32wb03x_rcc.o(i.RCC_GetLpuartClkSrc)
    RelayInit                                0x01000cf5   Thumb Code    72  bsp_relay.o(i.RelayInit)
    RelayOff                                 0x01000d49   Thumb Code     8  bsp_relay.o(i.RelayOff)
    RelayOn                                  0x01000d51   Thumb Code     8  bsp_relay.o(i.RelayOn)
    SysTick_Handler                          0x01000d59   Thumb Code    10  bsp_timer.o(i.SysTick_Handler)
    SystemCoreClockUpdate                    0x01000d69   Thumb Code     8  system_n32wb03x.o(i.SystemCoreClockUpdate)
    SystemGetMacAddr                         0x01000d79   Thumb Code    44  system_n32wb03x.o(i.SystemGetMacAddr)
    SystemInit                               0x01000dad   Thumb Code   346  system_n32wb03x.o(i.SystemInit)
    TM1650_DisplayInt                        0x01000f2d   Thumb Code    96  bsp_tm1650.o(i.TM1650_DisplayInt)
    TM1650_DisplayTime                       0x01000f95   Thumb Code    76  bsp_tm1650.o(i.TM1650_DisplayTime)
    TM1650_Init                              0x01000fe5   Thumb Code    68  bsp_tm1650.o(i.TM1650_Init)
    TM1650_SetDisplay                        0x0100102d   Thumb Code   138  bsp_tm1650.o(i.TM1650_SetDisplay)
    TM1650_WriteData                         0x01001141   Thumb Code   132  bsp_tm1650.o(i.TM1650_WriteData)
    USART1_IRQHandler                        0x010011c9   Thumb Code    24  bsp_usart.o(i.USART1_IRQHandler)
    USART_GetFlagStatus                      0x010011e5   Thumb Code    14  n32wb03x_usart.o(i.USART_GetFlagStatus)
    __0printf$8                              0x010011f5   Thumb Code    24  printf8.o(i.__0printf$8)
    __1printf$8                              0x010011f5   Thumb Code     0  printf8.o(i.__0printf$8)
    __2printf                                0x010011f5   Thumb Code     0  printf8.o(i.__0printf$8)
    __ARM_clz                                0x01001215   Thumb Code    46  depilogue.o(i.__ARM_clz)
    app_ble_adv_init                         0x010016b9   Thumb Code    90  app_ble.o(i.app_ble_adv_init)
    app_ble_adv_msg_handler                  0x0100172d   Thumb Code     2  app_ble.o(i.app_ble_adv_msg_handler)
    app_ble_gap_params_init                  0x01001731   Thumb Code   118  app_ble.o(i.app_ble_gap_params_init)
    app_ble_init                             0x010017c1   Thumb Code    58  app_ble.o(i.app_ble_init)
    app_ble_msg_handler                      0x0100180d   Thumb Code    56  app_ble.o(i.app_ble_msg_handler)
    app_ble_sec_init                         0x01001861   Thumb Code    70  app_ble.o(i.app_ble_sec_init)
    app_dis_add_dis                          0x0100198d   Thumb Code    74  app_dis.o(i.app_dis_add_dis)
    app_entry_point_handler                  0x010019e9   Thumb Code   238  ns_ble_task.o(i.app_entry_point_handler)
    app_rdtss_add_rdts                       0x01001bb5   Thumb Code    82  app_rdtss.o(i.app_rdtss_add_rdts)
    app_recv_data_fifo_enter                 0x01001c1d   Thumb Code    74  bsp_frame.o(i.app_recv_data_fifo_enter)
    app_usart_rx_data_fifo_enter             0x01001e21   Thumb Code   144  bsp_usart.o(i.app_usart_rx_data_fifo_enter)
    app_usart_tx_process                     0x01001ecd   Thumb Code    58  bsp_usart.o(i.app_usart_tx_process)
    app_user_msg_handler                     0x01001f11   Thumb Code    14  app_ble.o(i.app_user_msg_handler)
    attm_att_set_value                       0x01001f25   Thumb Code   172  lib_att.o(i.attm_att_set_value)
    ble_rx_msg                               0x01001fe5   Thumb Code   368  bsp_frame.o(i.ble_rx_msg)
    bsp_create_frame                         0x01002199   Thumb Code    60  bsp_frame.o(i.bsp_create_frame)
    bsp_init                                 0x010021d5   Thumb Code    42  bsp_init.o(i.bsp_init)
    check_client_char_cfg                    0x01002209   Thumb Code    42  rdts_common.o(i.check_client_char_cfg)
    diss_check_val_len                       0x01002233   Thumb Code    42  diss.o(i.diss_check_val_len)
    diss_handle_to_value                     0x0100229f   Thumb Code    52  diss.o(i.diss_handle_to_value)
    diss_prf_itf_get                         0x01002375   Thumb Code     4  diss.o(i.diss_prf_itf_get)
    diss_task_init                           0x01002419   Thumb Code    28  diss_task.o(i.diss_task_init)
    diss_value_to_handle                     0x01002575   Thumb Code    58  diss.o(i.diss_value_to_handle)
    fputc                                    0x010025b1   Thumb Code    54  ns_log_lpuart.o(i.fputc)
    free                                     0x010025f1   Thumb Code    80  malloc.o(i.free)
    get_cfg_handle                           0x010038a1   Thumb Code    98  rdts_common.o(i.get_cfg_handle)
    get_value_handle                         0x0100390d   Thumb Code    78  rdts_common.o(i.get_value_handle)
    llhwc_modem_setmode                      0x01003961   Thumb Code    44  rwip_driver.o(i.llhwc_modem_setmode)
    llhwc_phy_prerx_flash                    0x01003991   Thumb Code   172  rwip_driver.o(i.llhwc_phy_prerx_flash)
    main                                     0x01003b51   Thumb Code    32  main.o(i.main)
    malloc                                   0x01003b81   Thumb Code    92  malloc.o(i.malloc)
    ns_EXTI4_12_IRQHandler                   0x01003bed   Thumb Code    86  ns_ble.o(i.ns_EXTI4_12_IRQHandler)
    ns_HardFault_Handler                     0x01003c71   Thumb Code    96  ns_ble.o(i.ns_HardFault_Handler)
    ns_ble_add_prf_func_register             0x01003db1   Thumb Code    28  ns_ble.o(i.ns_ble_add_prf_func_register)
    ns_ble_add_svc                           0x01003dd1   Thumb Code    34  ns_ble.o(i.ns_ble_add_svc)
    ns_ble_adv_fsm_next                      0x01003dfd   Thumb Code   202  ns_ble.o(i.ns_ble_adv_fsm_next)
    ns_ble_adv_init                          0x01003ed9   Thumb Code    58  ns_ble.o(i.ns_ble_adv_init)
    ns_ble_adv_start                         0x01003f21   Thumb Code    72  ns_ble.o(i.ns_ble_adv_start)
    ns_ble_adv_stop                          0x01003f71   Thumb Code    66  ns_ble.o(i.ns_ble_adv_stop)
    ns_ble_delete_init                       0x01003fbd   Thumb Code    46  ns_ble.o(i.ns_ble_delete_init)
    ns_ble_delete_scan                       0x01003ff9   Thumb Code    42  ns_ble.o(i.ns_ble_delete_scan)
    ns_ble_disconnect                        0x01004031   Thumb Code    34  ns_ble.o(i.ns_ble_disconnect)
    ns_ble_gap_init                          0x0100405d   Thumb Code    70  ns_ble.o(i.ns_ble_gap_init)
    ns_ble_get_connection_num                0x010040c9   Thumb Code    32  ns_ble.o(i.ns_ble_get_connection_num)
    ns_ble_list_set_ral                      0x010040ed   Thumb Code    76  ns_ble.o(i.ns_ble_list_set_ral)
    ns_ble_lsc_config                        0x0100413d   Thumb Code   106  ns_ble.o(i.ns_ble_lsc_config)
    ns_ble_prf_task_register                 0x010041c1   Thumb Code    34  ns_ble.o(i.ns_ble_prf_task_register)
    ns_ble_scan_data_find                    0x010041e9   Thumb Code    72  ns_ble.o(i.ns_ble_scan_data_find)
    ns_ble_stack_init                        0x01004231   Thumb Code   448  ns_ble.o(i.ns_ble_stack_init)
    ns_ble_start_init                        0x010044a9   Thumb Code   260  ns_ble.o(i.ns_ble_start_init)
    ns_ble_start_scan                        0x010045cd   Thumb Code   178  ns_ble.o(i.ns_ble_start_scan)
    ns_ble_stop_init                         0x01004699   Thumb Code    42  ns_ble.o(i.ns_ble_stop_init)
    ns_ble_stop_scan                         0x010046d1   Thumb Code    48  ns_ble.o(i.ns_ble_stop_scan)
    ns_ble_update_param                      0x0100470d   Thumb Code   118  ns_ble.o(i.ns_ble_update_param)
    ns_bond_last_bonded_addr                 0x010047f1   Thumb Code    48  ns_sec.o(i.ns_bond_last_bonded_addr)
    ns_bond_last_bonded_peer_id              0x01004821   Thumb Code    48  ns_sec.o(i.ns_bond_last_bonded_peer_id)
    ns_bond_last_bonded_ral_info             0x01004851   Thumb Code    92  ns_sec.o(i.ns_bond_last_bonded_ral_info)
    ns_bond_resolv_addr_start                0x010048b5   Thumb Code    92  ns_sec.o(i.ns_bond_resolv_addr_start)
    ns_bond_search_addr_irk                  0x01004915   Thumb Code   110  ns_sec.o(i.ns_bond_search_addr_irk)
    ns_log_lpuart_init                       0x01004991   Thumb Code    92  ns_log_lpuart.o(i.ns_log_lpuart_init)
    ns_peripheral_config                     0x010049f5   Thumb Code   176  ns_ble.o(i.ns_peripheral_config)
    ns_sec_bond_store_evt_handler            0x01004afd   Thumb Code   314  ns_sec.o(i.ns_sec_bond_store_evt_handler)
    ns_sec_get_bond_status                   0x01004c79   Thumb Code    12  ns_sec.o(i.ns_sec_get_bond_status)
    ns_sec_get_iocap                         0x01004c89   Thumb Code     6  ns_sec.o(i.ns_sec_get_iocap)
    ns_sec_init                              0x01004c95   Thumb Code    94  ns_sec.o(i.ns_sec_init)
    ns_sleep_lock_acquire                    0x01004cfd   Thumb Code    20  ns_sleep.o(i.ns_sleep_lock_acquire)
    ns_sleep_lock_release                    0x01004d15   Thumb Code    16  ns_sleep.o(i.ns_sleep_lock_release)
    ns_timer_api_process_handler             0x01004d29   Thumb Code   166  ns_timer.o(i.ns_timer_api_process_handler)
    prf_add_profile                          0x01004e35   Thumb Code   132  prf.o(i.prf_add_profile)
    prf_dst_task_get                         0x01004ebd   Thumb Code    16  prf.o(i.prf_dst_task_get)
    prf_env_get                              0x01004ecd   Thumb Code    44  prf.o(i.prf_env_get)
    prf_get_id_from_task                     0x01004efd   Thumb Code    50  prf.o(i.prf_get_id_from_task)
    prf_get_itf_func_register                0x01004f35   Thumb Code    34  prf.o(i.prf_get_itf_func_register)
    prf_get_task_from_id                     0x01004f5d   Thumb Code    50  prf.o(i.prf_get_task_from_id)
    prf_init                                 0x01004f95   Thumb Code   170  prf.o(i.prf_init)
    rdtss_get_att_handle                     0x01005237   Thumb Code    28  rdts_common.o(i.rdtss_get_att_handle)
    rdtss_get_att_idx                        0x01005253   Thumb Code    40  rdts_common.o(i.rdtss_get_att_idx)
    rdtss_init_ccc_values                    0x01005315   Thumb Code   160  rdtss_task.o(i.rdtss_init_ccc_values)
    rdtss_prf_itf_get                        0x010053b9   Thumb Code     4  rdtss.o(i.rdtss_prf_itf_get)
    rdtss_send_notify                        0x010053c1   Thumb Code    84  app_rdtss.o(i.rdtss_send_notify)
    rdtss_set_ccc_value                      0x01005439   Thumb Code    52  rdtss_task.o(i.rdtss_set_ccc_value)
    rdtss_task_init                          0x0100546d   Thumb Code    28  rdtss_task.o(i.rdtss_task_init)
    resolve_frame                            0x0100572d   Thumb Code   234  bsp_frame.o(i.resolve_frame)
    rwip_init                                0x01005839   Thumb Code   198  rwip.o(i.rwip_init)
    rwip_slp_isr                             0x01005951   Thumb Code   198  rwip_driver.o(i.rwip_slp_isr)
    timer_init                               0x01005a4d   Thumb Code    74  bsp_timer.o(i.timer_init)
    timer_run                                0x01005ab1   Thumb Code   218  bsp_timer.o(i.timer_run)
    usart_rx_check_in_irq                    0x01005b9d   Thumb Code    70  bsp_usart.o(i.usart_rx_check_in_irq)
    usart_tx_dma_send                        0x01005bf1   Thumb Code    78  bsp_usart.o(i.usart_tx_dma_send)
    TRIM_READ_CMD_CODE                       0x01005c4c   Data         320  system_n32wb03x.o(.constdata)
    CMD_RDID                                 0x01005d8c   Data         152  system_n32wb03x.o(.constdata)
    const_qflash_cmd                         0x01005e30   Data         804  n32wb03x_qflash.o(.constdata)
    diss_att_db                              0x01006174   Data         152  diss.o(.constdata)
    diss_itf                                 0x0100620c   Data          16  diss.o(.constdata)
    rdtss_itf                                0x01006234   Data          16  rdtss.o(.constdata)
    app_sec_msg_handler_list                 0x0100628c   Data          40  ns_sec.o(.constdata)
    app_sec_handlers                         0x010062b4   Data           8  ns_sec.o(.constdata)
    TASK_DESC_APP_M                          0x0100679c   Data          12  ns_ble_task.o(.constdata)
    app_dis_msg_handler_list                 0x010067a8   Data           8  app_dis.o(.constdata)
    app_dis_handlers                         0x010067b0   Data           8  app_dis.o(.constdata)
    app_rdtss_handlers                       0x010067b8   Data           8  app_rdtss.o(.constdata)
    app_rdts_svc_uuid                        0x010067c0   Data          16  app_rdtss.o(.constdata)
    app_rdts_att_db                          0x010067d0   Data         154  app_rdtss.o(.constdata)
    app_rdtss_msg_handler_list               0x0100686c   Data          24  app_rdtss.o(.constdata)
    TM1650_TubeFont                          0x01006884   Data          17  bsp_tm1650.o(.constdata)
    Region$$Table$$Base                      0x01006898   Number         0  anon$$obj.o(Region$$Table)
    Region$$Table$$Limit                     0x010068b8   Number         0  anon$$obj.o(Region$$Table)
    rwip_rst_state                           0x20000000   Data           0  symbol_g15.obj ABSOLUTE
    ecc_env                                  0x20000004   Data           0  symbol_g15.obj ABSOLUTE
    aa_gen                                   0x20000010   Data           0  symbol_g15.obj ABSOLUTE
    lld_exp_sync_pos_tab                     0x20000018   Data           0  symbol_g15.obj ABSOLUTE
    sch_slice_params                         0x2000004c   Data           0  symbol_g15.obj ABSOLUTE
    hci_ext_host                             0x20000054   Data           0  symbol_g15.obj ABSOLUTE
    g_modem_flag                             0x20000060   Data           0  symbol_g15.obj ABSOLUTE
    g_clock_src                              0x20000061   Data           0  symbol_g15.obj ABSOLUTE
    g_hci_transport_onff                     0x20000062   Data           0  symbol_g15.obj ABSOLUTE
    g_delay_div_param                        0x20000063   Data           0  symbol_g15.obj ABSOLUTE
    g_delay_us_div_param                     0x20000064   Data           0  symbol_g15.obj ABSOLUTE
    g_loop_test                              0x20000065   Data           0  symbol_g15.obj ABSOLUTE
    g_ota_test                               0x20000066   Data           0  symbol_g15.obj ABSOLUTE
    g_ota_test_mtu_247_dle                   0x20000067   Data           0  symbol_g15.obj ABSOLUTE
    g_cal_hsi_cnt_value                      0x20000068   Data           0  symbol_g15.obj ABSOLUTE
    g_system_hsi_clk                         0x2000006c   Data           0  symbol_g15.obj ABSOLUTE
    g_user_set_stack_start                   0x20000070   Data           0  symbol_g15.obj ABSOLUTE
    g_rwip_patch_addr                        0x20000074   Data           0  symbol_g15.obj ABSOLUTE
    g_phy_2mbps_support                      0x20000078   Data           0  symbol_g15.obj ABSOLUTE
    g_auto_start_data_length_req             0x20000079   Data           0  symbol_g15.obj ABSOLUTE
    g_sleep_sleep_enable                     0x2000007a   Data           0  symbol_g15.obj ABSOLUTE
    g_status_io_stat                         0x2000007b   Data           0  symbol_g15.obj ABSOLUTE
    g_timeoutcnt                             0x2000007c   Data           0  symbol_g15.obj ABSOLUTE
    g_sleep_status_flag                      0x20000080   Data           0  symbol_g15.obj ABSOLUTE
    g_lsi_count_n_syscle                     0x20000084   Data           0  symbol_g15.obj ABSOLUTE
    g_lsi_accuracy                           0x20000088   Data           0  symbol_g15.obj ABSOLUTE
    g_lsi_1_syscle_cal_value                 0x2000008c   Data           0  symbol_g15.obj ABSOLUTE
    g_lsi_1_syscle_cnt_value                 0x20000090   Data           0  symbol_g15.obj ABSOLUTE
    g_recalib_hsi_flag                       0x20000094   Data           0  symbol_g15.obj ABSOLUTE
    g_hsi_accuracy                           0x20000098   Data           0  symbol_g15.obj ABSOLUTE
    g_hci_transport_type                     0x2000009c   Data           0  symbol_g15.obj ABSOLUTE
    g_hci_transport_process                  0x2000009d   Data           0  symbol_g15.obj ABSOLUTE
    acl_flow_ctrl_num                        0x2000009e   Data           0  symbol_g15.obj ABSOLUTE
    acl_flow_ctrl                            0x2000009f   Data           0  symbol_g15.obj ABSOLUTE
    g_acl_tx_sch_interval                    0x200000a0   Data           0  symbol_g15.obj ABSOLUTE
    dma_recv_data_time_window_size           0x200000a4   Data           0  symbol_g15.obj ABSOLUTE
    g_length_2_data_intv                     0x200000a8   Data           0  symbol_g15.obj ABSOLUTE
    g_soft_flow_tx_dummy                     0x200000ac   Data           0  symbol_g15.obj ABSOLUTE
    g_soft_flow_rx_len                       0x200000b0   Data           0  symbol_g15.obj ABSOLUTE
    g_hci_ch_type                            0x200000b2   Data           0  symbol_g15.obj ABSOLUTE
    g_uart_bps                               0x200000b4   Data           0  symbol_g15.obj ABSOLUTE
    g_uart_irq_wakeup_time                   0x200000b8   Data           0  symbol_g15.obj ABSOLUTE
    g_spi_data_ready_2_irq_rise              0x200000bc   Data           0  symbol_g15.obj ABSOLUTE
    g_lpclk_drift                            0x200000c0   Data           0  symbol_g15.obj ABSOLUTE
    g_rc32k_trim                             0x200000c4   Data           0  symbol_g15.obj ABSOLUTE
    g_sch_prog_fifo_iar_branch               0x200000c6   Data           0  symbol_g15.obj ABSOLUTE
    g_sch_arb_insert_branch                  0x200000c7   Data           0  symbol_g15.obj ABSOLUTE
    g_le_coded_phy_500                       0x200000c8   Data           0  symbol_g15.obj ABSOLUTE
    g_app_init_branch                        0x200000c9   Data           0  symbol_g15.obj ABSOLUTE
    g_adv_intv                               0x200000ca   Data           0  symbol_g15.obj ABSOLUTE
    g_twrm                                   0x200000d2   Data           0  symbol_g15.obj ABSOLUTE
    g_twosc                                  0x200000d4   Data           0  symbol_g15.obj ABSOLUTE
    g_twext                                  0x200000d6   Data           0  symbol_g15.obj ABSOLUTE
    rwip_prog_delay                          0x200000d8   Data           0  symbol_g15.obj ABSOLUTE
    g_ramcode_work_flag                      0x200000d9   Data           0  symbol_g15.obj ABSOLUTE
    prf_add_profile_ptr                      0x200000dc   Data           0  symbol_g15.obj ABSOLUTE
    prf_get_task_from_id_ptr                 0x200000e0   Data           0  symbol_g15.obj ABSOLUTE
    prf_get_id_from_task_ptr                 0x200000e4   Data           0  symbol_g15.obj ABSOLUTE
    g_co_default_bdaddr                      0x200000fc   Data           0  symbol_g15.obj ABSOLUTE
    BLE_NORMAL_WIN_SIZE                      0x20000102   Data           0  symbol_g15.obj ABSOLUTE
    BLE_RX_DESC_NB                           0x20000103   Data           0  symbol_g15.obj ABSOLUTE
    RWIP_MINIMUM_SLEEP_TIME                  0x20000104   Data           0  symbol_g15.obj ABSOLUTE
    SCH_SCAN_EVT_DUR_DFT                     0x20000106   Data           0  symbol_g15.obj ABSOLUTE
    llm_local_le_feats                       0x20000108   Data           0  symbol_g15.obj ABSOLUTE
    g_attr_table                             0x20000110   Data           0  symbol_g15.obj ABSOLUTE
    ATTR_TABLE_LENGTH                        0x20000114   Data           0  symbol_g15.obj ABSOLUTE
    g_rwip_heap_env                          0x20000118   Data           0  symbol_g15.obj ABSOLUTE
    g_rwip_heap_env_size                     0x2000011c   Data           0  symbol_g15.obj ABSOLUTE
    g_rwip_heap_db                           0x20000120   Data           0  symbol_g15.obj ABSOLUTE
    g_rwip_heap_db_size                      0x20000124   Data           0  symbol_g15.obj ABSOLUTE
    g_rwip_heap_non_ret                      0x20000128   Data           0  symbol_g15.obj ABSOLUTE
    g_rwip_heap_non_ret_size                 0x2000012c   Data           0  symbol_g15.obj ABSOLUTE
    g_rwip_heap_msg                          0x20000130   Data           0  symbol_g15.obj ABSOLUTE
    g_rwip_heap_msg_size                     0x20000134   Data           0  symbol_g15.obj ABSOLUTE
    utils_recv_buf_ptr                       0x20000138   Data           0  symbol_g15.obj ABSOLUTE
    utils_max_buf_len                        0x2000013c   Data           0  symbol_g15.obj ABSOLUTE
    g_soft_flow_tx_buf                       0x20000140   Data           0  symbol_g15.obj ABSOLUTE
    g_soft_flow_tx_len                       0x20000144   Data           0  symbol_g15.obj ABSOLUTE
    g_app_tx_buf_ptr                         0x20000148   Data           0  symbol_g15.obj ABSOLUTE
    g_app_tx_buf_len                         0x2000014c   Data           0  symbol_g15.obj ABSOLUTE
    g_app_bone_table_ptr                     0x20000150   Data           0  symbol_g15.obj ABSOLUTE
    g_app_bone_table_size                    0x20000154   Data           0  symbol_g15.obj ABSOLUTE
    g_soft_flow_tx_callback                  0x2000015c   Data           0  symbol_g15.obj ABSOLUTE
    utils_recv_len                           0x20000160   Data           0  symbol_g15.obj ABSOLUTE
    g_recv_len                               0x20000162   Data           0  symbol_g15.obj ABSOLUTE
    s_dma_spis_set_rx_len                    0x2000018c   Data           0  symbol_g15.obj ABSOLUTE
    s_dma_spis_set_tx_len                    0x2000018e   Data           0  symbol_g15.obj ABSOLUTE
    s_dma_lpuart_set_len                     0x20000190   Data           0  symbol_g15.obj ABSOLUTE
    TASK_DESC_APP_SEC                        0x20000194   Data           0  symbol_g15.obj ABSOLUTE
    g_version                                0x200001a1   Data           0  symbol_g15.obj ABSOLUTE
    ota_test_mode                            0x200001a8   Data           0  symbol_g15.obj ABSOLUTE
    ota_send_num_idx                         0x200001ac   Data           0  symbol_g15.obj ABSOLUTE
    gattc_state                              0x200001b0   Data           0  symbol_g15.obj ABSOLUTE
    gattm_state                              0x200001b4   Data           0  symbol_g15.obj ABSOLUTE
    gapc_state                               0x200001b5   Data           0  symbol_g15.obj ABSOLUTE
    gapm_state                               0x200001b9   Data           0  symbol_g15.obj ABSOLUTE
    l2cc_state                               0x200001ba   Data           0  symbol_g15.obj ABSOLUTE
    ahi_state                                0x200001be   Data           0  symbol_g15.obj ABSOLUTE
    __stdout                                 0x200001c4   Data           0  symbol_g15.obj ABSOLUTE
    ke_env                                   0x200001c8   Data           0  symbol_g15.obj ABSOLUTE
    rwip_rf                                  0x20000274   Data           0  symbol_g15.obj ABSOLUTE
    rwip_env                                 0x200002a8   Data           0  symbol_g15.obj ABSOLUTE
    aes_env                                  0x200002c8   Data           0  symbol_g15.obj ABSOLUTE
    llc_env                                  0x200002fc   Data           0  symbol_g15.obj ABSOLUTE
    lld_env                                  0x2000030c   Data           0  symbol_g15.obj ABSOLUTE
    lld_sync_env                             0x20000430   Data           0  symbol_g15.obj ABSOLUTE
    llm_env                                  0x20000440   Data           0  symbol_g15.obj ABSOLUTE
    hci_env                                  0x20000978   Data           0  symbol_g15.obj ABSOLUTE
    hci_tl_acl_env                           0x200009b4   Data           0  symbol_g15.obj ABSOLUTE
    utils_env                                0x20000a3c   Data           0  symbol_g15.obj ABSOLUTE
    user_prf_env                             0x20000b30   Data           0  symbol_g15.obj ABSOLUTE
    gattc_env                                0x20000b58   Data           0  symbol_g15.obj ABSOLUTE
    gattm_env                                0x20000b68   Data           0  symbol_g15.obj ABSOLUTE
    gapc_env                                 0x20000ba0   Data           0  symbol_g15.obj ABSOLUTE
    gapm_env                                 0x20000bb0   Data           0  symbol_g15.obj ABSOLUTE
    l2cc_env                                 0x20000c00   Data           0  symbol_g15.obj ABSOLUTE
    l2cm_env                                 0x20000c10   Data           0  symbol_g15.obj ABSOLUTE
    ahi_env                                  0x20000ce4   Data           0  symbol_g15.obj ABSOLUTE
    SystemCoreClock                          0x20004000   Data           4  system_n32wb03x.o(.data)
    CMD_FLASH_SE                             0x20004004   Data           4  n32wb03x_qflash.o(.data)
    CMD_FLASH_WRITE                          0x20004008   Data           4  n32wb03x_qflash.o(.data)
    CMD_FLASH_READ                           0x2000400c   Data           4  n32wb03x_qflash.o(.data)
    g_rf_tx_power                            0x20004010   Data           1  rwip_driver.o(.data)
    ns_sleep_lock                            0x20004028   Data           4  ns_sleep.o(.data)
    p_prevent_sleep                          0x2000402c   Data           4  ns_sleep.o(.data)
    user_HardFault_Handler                   0x20004040   Data           4  ns_ble.o(.data)
    user_EXTI4_12_IRQHandler                 0x20004044   Data           4  ns_ble.o(.data)
    app_state                                0x20004736   Data           1  ns_ble_task.o(.data)
    notify_en                                0x20004737   Data           1  app_rdtss.o(.data)
    usart_sending                            0x20004738   Data           1  bsp_usart.o(.data)
    ble_sending                              0x20004739   Data           1  bsp_usart.o(.data)
    fg_rx_end                                0x2000473a   Data           1  bsp_usart.o(.data)
    rx_old_pos                               0x2000473c   Data           2  bsp_usart.o(.data)
    ble_att_mtu                              0x2000473e   Data           2  bsp_usart.o(.data)
    usart_rx_fifo_in                         0x20004740   Data           4  bsp_usart.o(.data)
    usart_rx_fifo_out                        0x20004744   Data           4  bsp_usart.o(.data)
    usart_tx_fifo_in                         0x20004748   Data           4  bsp_usart.o(.data)
    usart_tx_fifo_out                        0x2000474c   Data           4  bsp_usart.o(.data)
    data_count                               0x20004752   Data           2  bsp_frame.o(.data)
    rx_fifo_start                            0x20004756   Data           2  bsp_frame.o(.data)
    rx_fifo_end                              0x20004758   Data           2  bsp_frame.o(.data)
    timer_state                              0x2000475c   Data           1  bsp_timer.o(.data)
    time_sec                                 0x20004760   Data           4  bsp_timer.o(.data)
    Tick_num                                 0x20004764   Data           4  bsp_timer.o(.data)
    __microlib_freelist                      0x20004778   Data           4  mvars.o(.data)
    __microlib_freelist_initialised          0x2000477c   Data           4  mvars.o(.data)
    trim_stored                              0x20004780   Data          52  system_n32wb03x.o(.bss)
    prf_env                                  0x20004adc   Data         200  prf.o(.bss)
    get_itf                                  0x20004ba4   Data          84  prf.o(.bss)
    app_sec_bond_data                        0x20004c48   Data          58  ns_sec.o(.bss)
    app_sec_env                              0x20004c84   Data          32  ns_sec.o(.bss)
    add_prf_evn                              0x20004ca4   Data          44  ns_ble.o(.bss)
    ble_prf_evn                              0x20004cd0   Data          84  ns_ble.o(.bss)
    app_env                                  0x20004d24   Data         132  ns_ble.o(.bss)
    gap_env                                  0x20004da8   Data          42  ns_ble.o(.bss)
    adv_env                                  0x20004dd4   Data          96  ns_ble.o(.bss)
    scan_env                                 0x20004e34   Data          32  ns_ble.o(.bss)
    USART_rx_dma_buf                         0x20004e54   Data         256  bsp_usart.o(.bss)
    usart_rx_fifo_buf                        0x20004f54   Data        1000  bsp_usart.o(.bss)
    usart_tx_fifo_buf                        0x2000533c   Data        1000  bsp_usart.o(.bss)
    rx_fifo_buf                              0x20005724   Data        1000  bsp_frame.o(.bss)
    __heap_base                              0x20005b18   Data           0  startup_n32wb03x.o(HEAP)
    __heap_limit                             0x20005d18   Data           0  startup_n32wb03x.o(HEAP)
    __initial_sp                             0x20006518   Data           0  startup_n32wb03x.o(STACK)



==============================================================================

Memory Map of the image

  Image Entry point : 0x010000c1

  Load Region LR_IROM1 (Base: 0x01000000, Size: 0x00007038, Max: 0x00040000, ABSOLUTE, COMPRESSED[0x00006eb8])

    Execution Region ER_IROM1 (Exec base: 0x01000000, Load base: 0x01000000, Size: 0x000068b8, Max: 0x00040000, ABSOLUTE)

    Exec Addr    Load Addr    Size         Type   Attr      Idx    E Section Name        Object

    0x01000000   0x01000000   0x000000c0   Data   RO            3    RESET               startup_n32wb03x.o
    0x010000c0   0x010000c0   0x00000000   Code   RO         4712  * .ARM.Collect$$$$00000000  mc_p.l(entry.o)
    0x010000c0   0x010000c0   0x00000004   Code   RO         5049    .ARM.Collect$$$$00000001  mc_p.l(entry2.o)
    0x010000c4   0x010000c4   0x00000004   Code   RO         5052    .ARM.Collect$$$$00000004  mc_p.l(entry5.o)
    0x010000c8   0x010000c8   0x00000000   Code   RO         5054    .ARM.Collect$$$$00000008  mc_p.l(entry7b.o)
    0x010000c8   0x010000c8   0x00000000   Code   RO         5056    .ARM.Collect$$$$0000000A  mc_p.l(entry8b.o)
    0x010000c8   0x010000c8   0x00000008   Code   RO         5057    .ARM.Collect$$$$0000000B  mc_p.l(entry9a.o)
    0x010000d0   0x010000d0   0x00000000   Code   RO         5059    .ARM.Collect$$$$0000000D  mc_p.l(entry10a.o)
    0x010000d0   0x010000d0   0x00000000   Code   RO         5061    .ARM.Collect$$$$0000000F  mc_p.l(entry11a.o)
    0x010000d0   0x010000d0   0x00000004   Code   RO         5050    .ARM.Collect$$$$00002712  mc_p.l(entry2.o)
    0x010000d4   0x010000d4   0x0000000e   Code   RO           10    .emb_text           system_n32wb03x.o
    0x010000e2   0x010000e2   0x00000002   PAD
    0x010000e4   0x010000e4   0x0000001c   Code   RO            4    .text               startup_n32wb03x.o
    0x01000100   0x01000100   0x0000002c   Code   RO         4715    .text               mc_p.l(uidiv.o)
    0x0100012c   0x0100012c   0x00000060   Code   RO         4719    .text               mc_p.l(uldiv.o)
    0x0100018c   0x0100018c   0x00000024   Code   RO         4721    .text               mc_p.l(rand.o)
    0x010001b0   0x010001b0   0x00000024   Code   RO         4724    .text               mc_p.l(memcpya.o)
    0x010001d4   0x010001d4   0x00000024   Code   RO         4726    .text               mc_p.l(memseta.o)
    0x010001f8   0x010001f8   0x0000001a   Code   RO         4728    .text               mc_p.l(memcmp.o)
    0x01000212   0x01000212   0x00000002   PAD
    0x01000214   0x01000214   0x000000d0   Code   RO         5029    .text               mf_p.l(dmul.o)
    0x010002e4   0x010002e4   0x000000f0   Code   RO         5031    .text               mf_p.l(ddiv.o)
    0x010003d4   0x010003d4   0x0000001c   Code   RO         5037    .text               mf_p.l(dfltui.o)
    0x010003f0   0x010003f0   0x0000001c   Code   RO         5039    .text               mf_p.l(dfltul.o)
    0x0100040c   0x0100040c   0x00000040   Code   RO         5043    .text               mf_p.l(dfixul.o)
    0x0100044c   0x0100044c   0x00000020   Code   RO         5063    .text               mc_p.l(llshl.o)
    0x0100046c   0x0100046c   0x00000022   Code   RO         5065    .text               mc_p.l(llushr.o)
    0x0100048e   0x0100048e   0x00000000   Code   RO         5071    .text               mc_p.l(iusefp.o)
    0x0100048e   0x0100048e   0x000000be   Code   RO         5074    .text               mf_p.l(depilogue.o)
    0x0100054c   0x0100054c   0x00000024   Code   RO         5080    .text               mc_p.l(init.o)
    0x01000570   0x01000570   0x00000060   Code   RO         5084    .text               mc_p.l(__dclz77c.o)
    0x010005d0   0x010005d0   0x0000000c   Ven    RO         5086    Veneer$$Code        anon$$obj.o
    0x010005dc   0x010005dc   0x0000000c   Ven    RO         5087    Veneer$$Code        anon$$obj.o
    0x010005e8   0x010005e8   0x0000000c   Ven    RO         5088    Veneer$$Code        anon$$obj.o
    0x010005f4   0x010005f4   0x0000000c   Ven    RO         5089    Veneer$$Code        anon$$obj.o
    0x01000600   0x01000600   0x0000000c   Ven    RO         5090    Veneer$$Code        anon$$obj.o
    0x0100060c   0x0100060c   0x0000000c   Ven    RO         5091    Veneer$$Code        anon$$obj.o
    0x01000618   0x01000618   0x0000000c   Ven    RO         5092    Veneer$$Code        anon$$obj.o
    0x01000624   0x01000624   0x0000000c   Ven    RO         5093    Veneer$$Code        anon$$obj.o
    0x01000630   0x01000630   0x0000000c   Ven    RO         5094    Veneer$$Code        anon$$obj.o
    0x0100063c   0x0100063c   0x0000000c   Ven    RO         5095    Veneer$$Code        anon$$obj.o
    0x01000648   0x01000648   0x00000054   Code   RO         4421    i.BuzzerInit        bsp_buzzer.o
    0x0100069c   0x0100069c   0x00000008   Code   RO         4422    i.BuzzerOff         bsp_buzzer.o
    0x010006a4   0x010006a4   0x00000008   Code   RO         4423    i.BuzzerOn          bsp_buzzer.o
    0x010006ac   0x010006ac   0x00000020   Code   RO          375    i.CRC16_CalcBufCrc  n32wb03x_crc.o
    0x010006cc   0x010006cc   0x00000068   Code   RO         4318    i.DMA_Channel1_2_3_4_IRQHandler  bsp_usart.o
    0x01000734   0x01000734   0x00000004   Code   RO          487    i.DMA_ClearFlag     n32wb03x_dma.o
    0x01000738   0x01000738   0x00000018   Code   RO          491    i.DMA_EnableChannel  n32wb03x_dma.o
    0x01000750   0x01000750   0x00000006   Code   RO          492    i.DMA_GetCurrDataCounter  n32wb03x_dma.o
    0x01000756   0x01000756   0x0000000e   Code   RO          493    i.DMA_GetFlagStatus  n32wb03x_dma.o
    0x01000764   0x01000764   0x00000040   Code   RO          495    i.DMA_Init          n32wb03x_dma.o
    0x010007a4   0x010007a4   0x0000000c   Code   RO          569    i.EXTI_ClrITPendBit  n32wb03x_exti.o
    0x010007b0   0x010007b0   0x0000001c   Code   RO          572    i.EXTI_GetITStatus  n32wb03x_exti.o
    0x010007cc   0x010007cc   0x00000070   Code   RO          574    i.EXTI_InitPeripheral  n32wb03x_exti.o
    0x0100083c   0x0100083c   0x000000b8   Code   RO          634    i.GPIO_InitPeripheral  n32wb03x_gpio.o
    0x010008f4   0x010008f4   0x0000001c   Code   RO          635    i.GPIO_InitStruct   n32wb03x_gpio.o
    0x01000910   0x01000910   0x00000004   Code   RO          640    i.GPIO_ResetBits    n32wb03x_gpio.o
    0x01000914   0x01000914   0x00000004   Code   RO          641    i.GPIO_SetBits      n32wb03x_gpio.o
    0x01000918   0x01000918   0x00000008   Code   RO          642    i.GPIO_TogglePin    n32wb03x_gpio.o
    0x01000920   0x01000920   0x00000004   Code   RO         1836    i.LPUART_ClrFlag    n32wb03x_lpuart.o
    0x01000924   0x01000924   0x00000020   Code   RO         1842    i.LPUART_DeInit     n32wb03x_lpuart.o
    0x01000944   0x01000944   0x0000000e   Code   RO         1847    i.LPUART_GetFlagStatus  n32wb03x_lpuart.o
    0x01000952   0x01000952   0x00000002   PAD
    0x01000954   0x01000954   0x000000d0   Code   RO         1849    i.LPUART_Init       n32wb03x_lpuart.o
    0x01000a24   0x01000a24   0x00000004   Code   RO         1851    i.LPUART_SendData   n32wb03x_lpuart.o
    0x01000a28   0x01000a28   0x00000008   Code   RO         4477    i.LedBlink          bsp_led.o
    0x01000a30   0x01000a30   0x00000054   Code   RO         4478    i.LedInitSingle     bsp_led.o
    0x01000a84   0x01000a84   0x00000008   Code   RO         4479    i.LedOff            bsp_led.o
    0x01000a8c   0x01000a8c   0x00000008   Code   RO         4480    i.LedOn             bsp_led.o
    0x01000a94   0x01000a94   0x00000028   Code   RO         4481    i.Led_Init          bsp_led.o
    0x01000abc   0x01000abc   0x000000cc   Code   RO           11    i.OTPTrim_Read      system_n32wb03x.o
    0x01000b88   0x01000b88   0x00000024   Code   RO         1947    i.Qflash_Erase_Sector  n32wb03x_qflash.o
    0x01000bac   0x01000bac   0x00000038   Code   RO         1948    i.Qflash_Init       n32wb03x_qflash.o
    0x01000be4   0x01000be4   0x00000024   Code   RO         1950    i.Qflash_Write      n32wb03x_qflash.o
    0x01000c08   0x01000c08   0x0000001c   Code   RO          754    i.RCC_ConfigLpuartClk  n32wb03x_rcc.o
    0x01000c24   0x01000c24   0x00000018   Code   RO          762    i.RCC_EnableAHBPeriphClk  n32wb03x_rcc.o
    0x01000c3c   0x01000c3c   0x00000018   Code   RO          766    i.RCC_EnableAPB2PeriphClk  n32wb03x_rcc.o
    0x01000c54   0x01000c54   0x00000018   Code   RO          769    i.RCC_EnableLpuartClk  n32wb03x_rcc.o
    0x01000c6c   0x01000c6c   0x00000074   Code   RO          774    i.RCC_GetClocksFreqValue  n32wb03x_rcc.o
    0x01000ce0   0x01000ce0   0x00000014   Code   RO          777    i.RCC_GetLpuartClkSrc  n32wb03x_rcc.o
    0x01000cf4   0x01000cf4   0x00000054   Code   RO         4517    i.RelayInit         bsp_relay.o
    0x01000d48   0x01000d48   0x00000008   Code   RO         4518    i.RelayOff          bsp_relay.o
    0x01000d50   0x01000d50   0x00000008   Code   RO         4519    i.RelayOn           bsp_relay.o
    0x01000d58   0x01000d58   0x00000010   Code   RO         4652    i.SysTick_Handler   bsp_timer.o
    0x01000d68   0x01000d68   0x00000010   Code   RO           12    i.SystemCoreClockUpdate  system_n32wb03x.o
    0x01000d78   0x01000d78   0x00000034   Code   RO           13    i.SystemGetMacAddr  system_n32wb03x.o
    0x01000dac   0x01000dac   0x00000180   Code   RO           15    i.SystemInit        system_n32wb03x.o
    0x01000f2c   0x01000f2c   0x00000068   Code   RO         4545    i.TM1650_DisplayInt  bsp_tm1650.o
    0x01000f94   0x01000f94   0x00000050   Code   RO         4546    i.TM1650_DisplayTime  bsp_tm1650.o
    0x01000fe4   0x01000fe4   0x00000048   Code   RO         4547    i.TM1650_Init       bsp_tm1650.o
    0x0100102c   0x0100102c   0x00000090   Code   RO         4548    i.TM1650_SetDisplay  bsp_tm1650.o
    0x010010bc   0x010010bc   0x00000084   Code   RO         4549    i.TM1650_WriteByte  bsp_tm1650.o
    0x01001140   0x01001140   0x00000088   Code   RO         4550    i.TM1650_WriteData  bsp_tm1650.o
    0x010011c8   0x010011c8   0x0000001c   Code   RO         4323    i.USART1_IRQHandler  bsp_usart.o
    0x010011e4   0x010011e4   0x0000000e   Code   RO         1532    i.USART_GetFlagStatus  n32wb03x_usart.o
    0x010011f2   0x010011f2   0x00000002   PAD
    0x010011f4   0x010011f4   0x00000020   Code   RO         4939    i.__0printf$8       mc_p.l(printf8.o)
    0x01001214   0x01001214   0x0000002e   Code   RO         5076    i.__ARM_clz         mf_p.l(depilogue.o)
    0x01001242   0x01001242   0x00000002   PAD
    0x01001244   0x01001244   0x00000428   Code   RO         4946    i._printf_core      mc_p.l(printf8.o)
    0x0100166c   0x0100166c   0x00000020   Code   RO         4947    i._printf_post_padding  mc_p.l(printf8.o)
    0x0100168c   0x0100168c   0x0000002c   Code   RO         4948    i._printf_pre_padding  mc_p.l(printf8.o)
    0x010016b8   0x010016b8   0x00000074   Code   RO         4200    i.app_ble_adv_init  app_ble.o
    0x0100172c   0x0100172c   0x00000002   Code   RO         4201    i.app_ble_adv_msg_handler  app_ble.o
    0x0100172e   0x0100172e   0x00000002   PAD
    0x01001730   0x01001730   0x00000090   Code   RO         4204    i.app_ble_gap_params_init  app_ble.o
    0x010017c0   0x010017c0   0x0000004c   Code   RO         4205    i.app_ble_init      app_ble.o
    0x0100180c   0x0100180c   0x00000054   Code   RO         4206    i.app_ble_msg_handler  app_ble.o
    0x01001860   0x01001860   0x00000050   Code   RO         4208    i.app_ble_sec_init  app_ble.o
    0x010018b0   0x010018b0   0x00000010   Code   RO         3894    i.app_conn_params_update_evt_handler  ns_ble_task.o
    0x010018c0   0x010018c0   0x000000cc   Code   RO         3495    i.app_create_advertising  ns_ble.o
    0x0100198c   0x0100198c   0x0000005c   Code   RO         4048    i.app_dis_add_dis   app_dis.o
    0x010019e8   0x010019e8   0x00000104   Code   RO         3895    i.app_entry_point_handler  ns_ble_task.o
    0x01001aec   0x01001aec   0x0000001c   Code   RO         3896    i.app_init_timeout_evt_handler  ns_ble_task.o
    0x01001b08   0x01001b08   0x000000ac   Code   RO         3897    i.app_lsi_calib_evt_handler  ns_ble_task.o
    0x01001bb4   0x01001bb4   0x00000068   Code   RO         4103    i.app_rdtss_add_rdts  app_rdtss.o
    0x01001c1c   0x01001c1c   0x00000054   Code   RO         4612    i.app_recv_data_fifo_enter  bsp_frame.o
    0x01001c70   0x01001c70   0x00000004   Code   RO         3254    i.app_sec_msg_dflt_handler  ns_sec.o
    0x01001c74   0x01001c74   0x00000078   Code   RO         3496    i.app_set_adv_data  ns_ble.o
    0x01001cec   0x01001cec   0x000000c4   Code   RO         3497    i.app_set_scan_rsp_data  ns_ble.o
    0x01001db0   0x01001db0   0x00000070   Code   RO         3498    i.app_start_advertising  ns_ble.o
    0x01001e20   0x01001e20   0x000000ac   Code   RO         4326    i.app_usart_rx_data_fifo_enter  bsp_usart.o
    0x01001ecc   0x01001ecc   0x00000044   Code   RO         4328    i.app_usart_tx_process  bsp_usart.o
    0x01001f10   0x01001f10   0x00000014   Code   RO         4209    i.app_user_msg_handler  app_ble.o
    0x01001f24   0x01001f24   0x000000c0   Code   RO         1987    i.attm_att_set_value  lib_att.o
    0x01001fe4   0x01001fe4   0x000001b4   Code   RO         4613    i.ble_rx_msg        bsp_frame.o
    0x01002198   0x01002198   0x0000003c   Code   RO         4614    i.bsp_create_frame  bsp_frame.o
    0x010021d4   0x010021d4   0x00000034   Code   RO         4596    i.bsp_init          bsp_init.o
    0x01002208   0x01002208   0x0000002a   Code   RO         3028    i.check_client_char_cfg  rdts_common.o
    0x01002232   0x01002232   0x0000002a   Code   RO         2666    i.diss_check_val_len  diss.o
    0x0100225c   0x0100225c   0x00000002   Code   RO         2667    i.diss_cleanup      diss.o
    0x0100225e   0x0100225e   0x00000002   Code   RO         2669    i.diss_create       diss.o
    0x01002260   0x01002260   0x0000003e   Code   RO         2670    i.diss_destroy      diss.o
    0x0100229e   0x0100229e   0x00000034   Code   RO         2671    i.diss_handle_to_value  diss.o
    0x010022d2   0x010022d2   0x00000002   PAD
    0x010022d4   0x010022d4   0x000000a0   Code   RO         2672    i.diss_init         diss.o
    0x01002374   0x01002374   0x00000008   Code   RO         2673    i.diss_prf_itf_get  diss.o
    0x0100237c   0x0100237c   0x0000009c   Code   RO         2765    i.diss_set_value_req_handler  diss_task.o
    0x01002418   0x01002418   0x00000020   Code   RO         2766    i.diss_task_init    diss_task.o
    0x01002438   0x01002438   0x0000007c   Code   RO         2767    i.diss_value_cfm_handler  diss_task.o
    0x010024b4   0x010024b4   0x000000c0   Code   RO         4050    i.diss_value_req_ind_handler  app_dis.o
    0x01002574   0x01002574   0x0000003a   Code   RO         2674    i.diss_value_to_handle  diss.o
    0x010025ae   0x010025ae   0x00000002   PAD
    0x010025b0   0x010025b0   0x00000040   Code   RO         3073    i.fputc             ns_log_lpuart.o
    0x010025f0   0x010025f0   0x00000054   Code   RO         4993    i.free              mc_p.l(malloc.o)
    0x01002644   0x01002644   0x000000f0   Code   RO         3255    i.gapc_bond_ind_handler  ns_sec.o
    0x01002734   0x01002734   0x00000208   Code   RO         3256    i.gapc_bond_req_ind_handler  ns_sec.o
    0x0100293c   0x0100293c   0x00000028   Code   RO         3898    i.gapc_cmp_evt_handler  ns_ble_task.o
    0x01002964   0x01002964   0x0000006c   Code   RO         3899    i.gapc_conn_rssi_ind_handler  ns_ble_task.o
    0x010029d0   0x010029d0   0x00000180   Code   RO         3900    i.gapc_connection_req_ind_handler  ns_ble_task.o
    0x01002b50   0x01002b50   0x00000098   Code   RO         3901    i.gapc_disconnect_ind_handler  ns_ble_task.o
    0x01002be8   0x01002be8   0x00000028   Code   RO         3257    i.gapc_encrypt_ind_handler  ns_sec.o
    0x01002c10   0x01002c10   0x00000150   Code   RO         3258    i.gapc_encrypt_req_ind_handler  ns_sec.o
    0x01002d60   0x01002d60   0x00000080   Code   RO         3902    i.gapc_get_dev_info_req_ind_handler  ns_ble_task.o
    0x01002de0   0x01002de0   0x00000030   Code   RO         3903    i.gapc_le_phy_ind_handler  ns_ble_task.o
    0x01002e10   0x01002e10   0x0000001c   Code   RO         3904    i.gapc_le_pkt_size_ind_handler  ns_ble_task.o
    0x01002e2c   0x01002e2c   0x00000064   Code   RO         3905    i.gapc_param_update_req_ind_handler  ns_ble_task.o
    0x01002e90   0x01002e90   0x00000028   Code   RO         3906    i.gapc_param_updated_ind_handler  ns_ble_task.o
    0x01002eb8   0x01002eb8   0x00000040   Code   RO         3907    i.gapc_set_dev_info_req_ind_handler  ns_ble_task.o
    0x01002ef8   0x01002ef8   0x00000034   Code   RO         3908    i.gapm_activity_created_ind_handler  ns_ble_task.o
    0x01002f2c   0x01002f2c   0x00000060   Code   RO         3909    i.gapm_activity_stopped_ind_handler  ns_ble_task.o
    0x01002f8c   0x01002f8c   0x0000002c   Code   RO         3910    i.gapm_addr_solved_ind_handler  ns_ble_task.o
    0x01002fb8   0x01002fb8   0x00000414   Code   RO         3911    i.gapm_cmp_evt_handler  ns_ble_task.o
    0x010033cc   0x010033cc   0x000000ac   Code   RO         3912    i.gapm_ext_adv_repoer_ind_handler  ns_ble_task.o
    0x01003478   0x01003478   0x00000036   Code   RO         3913    i.gapm_gen_rand_nb_ind_handler  ns_ble_task.o
    0x010034ae   0x010034ae   0x0000000c   Code   RO         3914    i.gapm_profile_added_ind_handler  ns_ble_task.o
    0x010034ba   0x010034ba   0x0000000c   Code   RO         3915    i.gapm_scan_request_ind_handler  ns_ble_task.o
    0x010034c6   0x010034c6   0x00000002   PAD
    0x010034c8   0x010034c8   0x00000040   Code   RO         2906    i.gattc_att_info_req_ind_handler  rdtss_task.o
    0x01003508   0x01003508   0x00000070   Code   RO         2907    i.gattc_cmp_evt_handler  rdtss_task.o
    0x01003578   0x01003578   0x00000028   Code   RO         3916    i.gattc_cmp_evt_handler  ns_ble_task.o
    0x010035a0   0x010035a0   0x0000004c   Code   RO         3917    i.gattc_mtu_changed_ind_handler  ns_ble_task.o
    0x010035ec   0x010035ec   0x000000c4   Code   RO         2768    i.gattc_read_req_ind_handler  diss_task.o
    0x010036b0   0x010036b0   0x000000e0   Code   RO         2908    i.gattc_read_req_ind_handler  rdtss_task.o
    0x01003790   0x01003790   0x00000110   Code   RO         2909    i.gattc_write_req_ind_handler  rdtss_task.o
    0x010038a0   0x010038a0   0x0000006c   Code   RO         3029    i.get_cfg_handle    rdts_common.o
    0x0100390c   0x0100390c   0x00000054   Code   RO         3030    i.get_value_handle  rdts_common.o
    0x01003960   0x01003960   0x00000030   Code   RO         2359    i.llhwc_modem_setmode  rwip_driver.o
    0x01003990   0x01003990   0x00000130   Code   RO         2360    i.llhwc_phy_prerx_flash  rwip_driver.o
    0x01003ac0   0x01003ac0   0x00000090   Code   RO         2361    i.llhwc_setmode_reg_config  rwip_driver.o
    0x01003b50   0x01003b50   0x00000030   Code   RO         4292    i.main              main.o
    0x01003b80   0x01003b80   0x0000006c   Code   RO         4994    i.malloc            mc_p.l(malloc.o)
    0x01003bec   0x01003bec   0x00000084   Code   RO         3499    i.ns_EXTI4_12_IRQHandler  ns_ble.o
    0x01003c70   0x01003c70   0x00000140   Code   RO         3500    i.ns_HardFault_Handler  ns_ble.o
    0x01003db0   0x01003db0   0x00000020   Code   RO         3502    i.ns_ble_add_prf_func_register  ns_ble.o
    0x01003dd0   0x01003dd0   0x0000002c   Code   RO         3503    i.ns_ble_add_svc    ns_ble.o
    0x01003dfc   0x01003dfc   0x000000dc   Code   RO         3505    i.ns_ble_adv_fsm_next  ns_ble.o
    0x01003ed8   0x01003ed8   0x00000048   Code   RO         3506    i.ns_ble_adv_init   ns_ble.o
    0x01003f20   0x01003f20   0x00000050   Code   RO         3507    i.ns_ble_adv_start  ns_ble.o
    0x01003f70   0x01003f70   0x0000004c   Code   RO         3508    i.ns_ble_adv_stop   ns_ble.o
    0x01003fbc   0x01003fbc   0x0000003c   Code   RO         3511    i.ns_ble_delete_init  ns_ble.o
    0x01003ff8   0x01003ff8   0x00000038   Code   RO         3512    i.ns_ble_delete_scan  ns_ble.o
    0x01004030   0x01004030   0x0000002c   Code   RO         3513    i.ns_ble_disconnect  ns_ble.o
    0x0100405c   0x0100405c   0x0000006c   Code   RO         3516    i.ns_ble_gap_init   ns_ble.o
    0x010040c8   0x010040c8   0x00000024   Code   RO         3519    i.ns_ble_get_connection_num  ns_ble.o
    0x010040ec   0x010040ec   0x00000050   Code   RO         3522    i.ns_ble_list_set_ral  ns_ble.o
    0x0100413c   0x0100413c   0x00000084   Code   RO         3524    i.ns_ble_lsc_config  ns_ble.o
    0x010041c0   0x010041c0   0x00000028   Code   RO         3528    i.ns_ble_prf_task_register  ns_ble.o
    0x010041e8   0x010041e8   0x00000048   Code   RO         3533    i.ns_ble_scan_data_find  ns_ble.o
    0x01004230   0x01004230   0x00000278   Code   RO         3540    i.ns_ble_stack_init  ns_ble.o
    0x010044a8   0x010044a8   0x00000124   Code   RO         3541    i.ns_ble_start_init  ns_ble.o
    0x010045cc   0x010045cc   0x000000cc   Code   RO         3542    i.ns_ble_start_scan  ns_ble.o
    0x01004698   0x01004698   0x00000038   Code   RO         3543    i.ns_ble_stop_init  ns_ble.o
    0x010046d0   0x010046d0   0x0000003c   Code   RO         3544    i.ns_ble_stop_scan  ns_ble.o
    0x0100470c   0x0100470c   0x0000009c   Code   RO         3545    i.ns_ble_update_param  ns_ble.o
    0x010047a8   0x010047a8   0x0000002c   Code   RO         3259    i.ns_bond_db_get_size  ns_sec.o
    0x010047d4   0x010047d4   0x0000001c   Code   RO         3260    i.ns_bond_db_load   ns_sec.o
    0x010047f0   0x010047f0   0x00000030   Code   RO         3261    i.ns_bond_last_bonded_addr  ns_sec.o
    0x01004820   0x01004820   0x00000030   Code   RO         3262    i.ns_bond_last_bonded_peer_id  ns_sec.o
    0x01004850   0x01004850   0x00000064   Code   RO         3263    i.ns_bond_last_bonded_ral_info  ns_sec.o
    0x010048b4   0x010048b4   0x00000060   Code   RO         3264    i.ns_bond_resolv_addr_start  ns_sec.o
    0x01004914   0x01004914   0x0000007c   Code   RO         3265    i.ns_bond_search_addr_irk  ns_sec.o
    0x01004990   0x01004990   0x00000064   Code   RO         3075    i.ns_log_lpuart_init  ns_log_lpuart.o
    0x010049f4   0x010049f4   0x00000108   Code   RO         3548    i.ns_peripheral_config  ns_ble.o
    0x01004afc   0x01004afc   0x0000017c   Code   RO         3267    i.ns_sec_bond_store_evt_handler  ns_sec.o
    0x01004c78   0x01004c78   0x00000010   Code   RO         3268    i.ns_sec_get_bond_status  ns_sec.o
    0x01004c88   0x01004c88   0x0000000c   Code   RO         3269    i.ns_sec_get_iocap  ns_sec.o
    0x01004c94   0x01004c94   0x00000068   Code   RO         3270    i.ns_sec_init       ns_sec.o
    0x01004cfc   0x01004cfc   0x00000018   Code   RO         3116    i.ns_sleep_lock_acquire  ns_sleep.o
    0x01004d14   0x01004d14   0x00000014   Code   RO         3117    i.ns_sleep_lock_release  ns_sleep.o
    0x01004d28   0x01004d28   0x000000c8   Code   RO         3192    i.ns_timer_api_process_handler  ns_timer.o
    0x01004df0   0x01004df0   0x00000044   Code   RO         3549    i.patchx_enable     ns_ble.o
    0x01004e34   0x01004e34   0x00000088   Code   RO         2540    i.prf_add_profile   prf.o
    0x01004ebc   0x01004ebc   0x00000010   Code   RO         2543    i.prf_dst_task_get  prf.o
    0x01004ecc   0x01004ecc   0x00000030   Code   RO         2544    i.prf_env_get       prf.o
    0x01004efc   0x01004efc   0x00000038   Code   RO         2545    i.prf_get_id_from_task  prf.o
    0x01004f34   0x01004f34   0x00000028   Code   RO         2546    i.prf_get_itf_func_register  prf.o
    0x01004f5c   0x01004f5c   0x00000038   Code   RO         2547    i.prf_get_task_from_id  prf.o
    0x01004f94   0x01004f94   0x000000b4   Code   RO         2548    i.prf_init          prf.o
    0x01005048   0x01005048   0x00000030   Code   RO         2549    i.prf_itf_get       prf.o
    0x01005078   0x01005078   0x0000003a   Code   RO         2910    i.rdtss_att_get_value  rdtss_task.o
    0x010050b2   0x010050b2   0x00000002   PAD
    0x010050b4   0x010050b4   0x00000040   Code   RO         2911    i.rdtss_att_info_rsp_handler  rdtss_task.o
    0x010050f4   0x010050f4   0x00000068   Code   RO         2912    i.rdtss_att_set_value  rdtss_task.o
    0x0100515c   0x0100515c   0x0000004c   Code   RO         2855    i.rdtss_cleanup     rdtss.o
    0x010051a8   0x010051a8   0x0000004c   Code   RO         2856    i.rdtss_create      rdtss.o
    0x010051f4   0x010051f4   0x00000042   Code   RO         2857    i.rdtss_destroy     rdtss.o
    0x01005236   0x01005236   0x0000001c   Code   RO         3031    i.rdtss_get_att_handle  rdts_common.o
    0x01005252   0x01005252   0x00000028   Code   RO         3032    i.rdtss_get_att_idx  rdts_common.o
    0x0100527a   0x0100527a   0x00000098   Code   RO         2858    i.rdtss_init        rdtss.o
    0x01005312   0x01005312   0x00000002   PAD
    0x01005314   0x01005314   0x000000a4   Code   RO         2913    i.rdtss_init_ccc_values  rdtss_task.o
    0x010053b8   0x010053b8   0x00000008   Code   RO         2859    i.rdtss_prf_itf_get  rdtss.o
    0x010053c0   0x010053c0   0x00000078   Code   RO         4105    i.rdtss_send_notify  app_rdtss.o
    0x01005438   0x01005438   0x00000034   Code   RO         2914    i.rdtss_set_ccc_value  rdtss_task.o
    0x0100546c   0x0100546c   0x00000020   Code   RO         2915    i.rdtss_task_init   rdtss_task.o
    0x0100548c   0x0100548c   0x000000b0   Code   RO         2916    i.rdtss_val_ind_req_handler  rdtss_task.o
    0x0100553c   0x0100553c   0x00000004   Code   RO         4106    i.rdtss_val_ntf_cfm_handler  app_rdtss.o
    0x01005540   0x01005540   0x000000c4   Code   RO         2917    i.rdtss_val_ntf_req_handler  rdtss_task.o
    0x01005604   0x01005604   0x00000020   Code   RO         2918    i.rdtss_val_set_req_handler  rdtss_task.o
    0x01005624   0x01005624   0x00000044   Code   RO         4107    i.rdtss_val_write_ind_handler  app_rdtss.o
    0x01005668   0x01005668   0x00000044   Code   RO         4108    i.rdtss_value_req_ind_handler  app_rdtss.o
    0x010056ac   0x010056ac   0x00000080   Code   RO         2919    i.rdtss_value_req_rsp_handler  rdtss_task.o
    0x0100572c   0x0100572c   0x0000010c   Code   RO         4615    i.resolve_frame     bsp_frame.o
    0x01005838   0x01005838   0x00000118   Code   RO         2108    i.rwip_init         rwip.o
    0x01005950   0x01005950   0x000000f8   Code   RO         2368    i.rwip_slp_isr      rwip_driver.o
    0x01005a48   0x01005a48   0x00000002   Code   RO         3197    i.timer_canceled_handler  ns_timer.o
    0x01005a4a   0x01005a4a   0x00000002   PAD
    0x01005a4c   0x01005a4c   0x00000060   Code   RO         4653    i.timer_init        bsp_timer.o
    0x01005aac   0x01005aac   0x00000002   Code   RO         3198    i.timer_modified_handler  ns_timer.o
    0x01005aae   0x01005aae   0x00000002   PAD
    0x01005ab0   0x01005ab0   0x000000ec   Code   RO         4654    i.timer_run         bsp_timer.o
    0x01005b9c   0x01005b9c   0x00000054   Code   RO         4330    i.usart_rx_check_in_irq  bsp_usart.o
    0x01005bf0   0x01005bf0   0x0000005c   Code   RO         4332    i.usart_tx_dma_send  bsp_usart.o
    0x01005c4c   0x01005c4c   0x000001d8   Data   RO           20    .constdata          system_n32wb03x.o
    0x01005e24   0x01005e24   0x0000000c   Data   RO          782    .constdata          n32wb03x_rcc.o
    0x01005e30   0x01005e30   0x00000324   Data   RO         1952    .constdata          n32wb03x_qflash.o
    0x01006154   0x01006154   0x0000001e   Data   RO         2369    .constdata          rwip_driver.o
    0x01006172   0x01006172   0x00000002   PAD
    0x01006174   0x01006174   0x000000a8   Data   RO         2675    .constdata          diss.o
    0x0100621c   0x0100621c   0x00000018   Data   RO         2769    .constdata          diss_task.o
    0x01006234   0x01006234   0x00000010   Data   RO         2860    .constdata          rdtss.o
    0x01006244   0x01006244   0x00000048   Data   RO         2920    .constdata          rdtss_task.o
    0x0100628c   0x0100628c   0x00000028   Data   RO         3276    .constdata          ns_sec.o
    0x010062b4   0x010062b4   0x00000008   Data   RO         3277    .constdata          ns_sec.o
    0x010062bc   0x010062bc   0x00000349   Data   RO         3551    .constdata          ns_ble.o
    0x01006605   0x01006605   0x00000001   PAD
    0x01006606   0x01006606   0x000000cd   Data   RO         3918    .constdata          ns_ble_task.o
    0x010066d3   0x010066d3   0x00000001   PAD
    0x010066d4   0x010066d4   0x000000c8   Data   RO         3919    .constdata          ns_ble_task.o
    0x0100679c   0x0100679c   0x0000000c   Data   RO         3920    .constdata          ns_ble_task.o
    0x010067a8   0x010067a8   0x00000008   Data   RO         4051    .constdata          app_dis.o
    0x010067b0   0x010067b0   0x00000008   Data   RO         4052    .constdata          app_dis.o
    0x010067b8   0x010067b8   0x000000b2   Data   RO         4109    .constdata          app_rdtss.o
    0x0100686a   0x0100686a   0x00000002   PAD
    0x0100686c   0x0100686c   0x00000018   Data   RO         4110    .constdata          app_rdtss.o
    0x01006884   0x01006884   0x00000011   Data   RO         4551    .constdata          bsp_tm1650.o
    0x01006895   0x01006895   0x00000003   PAD
    0x01006898   0x01006898   0x00000020   Data   RO         5082    Region$$Table       anon$$obj.o


    Execution Region RW_IRAM1 (Exec base: 0x20004000, Load base: 0x010068b8, Size: 0x00002518, Max: 0x00008000, ABSOLUTE, COMPRESSED[0x00000600])

    Exec Addr    Load Addr    Size         Type   Attr      Idx    E Section Name        Object

    0x20004000   COMPRESSED   0x00000004   Data   RW           21    .data               system_n32wb03x.o
    0x20004004   COMPRESSED   0x0000000c   Data   RW         1953    .data               n32wb03x_qflash.o
    0x20004010   COMPRESSED   0x00000014   Data   RW         2370    .data               rwip_driver.o
    0x20004024   COMPRESSED   0x00000001   Data   RW         3076    .data               ns_log_lpuart.o
    0x20004025   COMPRESSED   0x00000003   PAD
    0x20004028   COMPRESSED   0x00000008   Data   RW         3118    .data               ns_sleep.o
    0x20004030   COMPRESSED   0x00000010   PAD
    0x20004040   COMPRESSED   0x000006f4   Data   RW         3552    .data               ns_ble.o
    0x20004734   COMPRESSED   0x00000002   Data   RW         3921    .data               ns_ble_task.o
    0x20004736   COMPRESSED   0x00000001   Data   RW         3922    .data               ns_ble_task.o
    0x20004737   COMPRESSED   0x00000001   Data   RW         4111    .data               app_rdtss.o
    0x20004738   COMPRESSED   0x00000018   Data   RW         4334    .data               bsp_usart.o
    0x20004750   COMPRESSED   0x0000000a   Data   RW         4617    .data               bsp_frame.o
    0x2000475a   COMPRESSED   0x00000002   PAD
    0x2000475c   COMPRESSED   0x00000018   Data   RW         4655    .data               bsp_timer.o
    0x20004774   COMPRESSED   0x00000004   Data   RW         4722    .data               mc_p.l(rand.o)
    0x20004778   COMPRESSED   0x00000004   Data   RW         5069    .data               mc_p.l(mvars.o)
    0x2000477c   COMPRESSED   0x00000004   Data   RW         5070    .data               mc_p.l(mvars.o)
    0x20004780        -       0x00000034   Zero   RW           19    .bss                system_n32wb03x.o
    0x200047b4        -       0x00000328   Zero   RW         1951    .bss                n32wb03x_qflash.o
    0x20004adc        -       0x0000011c   Zero   RW         2551    .bss                prf.o
    0x20004bf8        -       0x00000050   Zero   RW         3199    .bss                ns_timer.o
    0x20004c48        -       0x0000005c   Zero   RW         3275    .bss                ns_sec.o
    0x20004ca4        -       0x000001b0   Zero   RW         3550    .bss                ns_ble.o
    0x20004e54        -       0x000008d0   Zero   RW         4333    .bss                bsp_usart.o
    0x20005724        -       0x000003f4   Zero   RW         4616    .bss                bsp_frame.o
    0x20005b18        -       0x00000200   Zero   RW            2    HEAP                startup_n32wb03x.o
    0x20005d18        -       0x00000800   Zero   RW            1    STACK               startup_n32wb03x.o


==============================================================================

Image component sizes


      Code (inc. data)   RO Data    RW Data    ZI Data      Debug   Object Name

       522        114          0          0          0       5925   app_ble.o
       284        102         16          0          0       8268   app_dis.o
       364         76        202          1          0      11653   app_rdtss.o
       100         12          0          0          0       1804   bsp_buzzer.o
       848        130          0         10       1012       4243   bsp_frame.o
        52         10          0          0          0        411   bsp_init.o
       148         22          0          0          0       2679   bsp_led.o
       100         12          0          0          0       1793   bsp_relay.o
       348         46          0         24          0       7899   bsp_timer.o
       668         30         17          0          0       4536   bsp_tm1650.o
       548         84          0         24       2256       5492   bsp_usart.o
       386         12        168          0          0      16774   diss.o
       508         20         24          0          0      18310   diss_task.o
       192         20          0          0          0      30354   lib_att.o
        48         16          0          0          0        411   main.o
        32          4          0          0          0       1067   n32wb03x_crc.o
       112         10          0          0          0       3888   n32wb03x_dma.o
       152         14          0          0          0       2317   n32wb03x_exti.o
       228          6          0          0          0       3697   n32wb03x_gpio.o
       262         24          0          0          0       4596   n32wb03x_lpuart.o
       128         38        804         12        808       3366   n32wb03x_qflash.o
       236         56         12          0          0       4314   n32wb03x_rcc.o
        14          0          0          0          0       2038   n32wb03x_usart.o
      3968        936        841       1780        432      87596   ns_ble.o
      3170        452        417          3          0      28317   ns_ble_task.o
       164         18          0          1          0       2304   ns_log_lpuart.o
      2140        274         48          0         92     103505   ns_sec.o
        44          8          0          8          0       2089   ns_sleep.o
       204         34          0          0         80       5901   ns_timer.o
       580         40          0          0        284       8434   prf.o
       302         16          0          0          0       6151   rdts_common.o
       378         16         16          0          0       6024   rdtss.o
      1678         72         72          0          0      30161   rdtss_task.o
       280         82          0          0          0      81858   rwip.o
       744        242         30         20          0      63729   rwip_driver.o
        28          8        192          0       2560        668   startup_n32wb03x.o
       670         72        472          4         52     131047   system_n32wb03x.o

    ----------------------------------------------------------------------
     20772       3168       3372       1908       7576     703619   Object Totals
       120         40         32          0          0          0   (incl. Generated)
        22          0          9         21          0          0   (incl. Padding)

    ----------------------------------------------------------------------

      Code (inc. data)   RO Data    RW Data    ZI Data      Debug   Library Member Name

        96          0          0          0          0          0   __dclz77c.o
         0          0          0          0          0          0   entry.o
         0          0          0          0          0          0   entry10a.o
         0          0          0          0          0          0   entry11a.o
         8          4          0          0          0          0   entry2.o
         4          0          0          0          0          0   entry5.o
         0          0          0          0          0          0   entry7b.o
         0          0          0          0          0          0   entry8b.o
         8          4          0          0          0          0   entry9a.o
        36          8          0          0          0         68   init.o
         0          0          0          0          0          0   iusefp.o
        32          0          0          0          0         68   llshl.o
        34          0          0          0          0         68   llushr.o
       192         20          0          0          0        144   malloc.o
        26          0          0          0          0         72   memcmp.o
        36          0          0          0          0         60   memcpya.o
        36          0          0          0          0        100   memseta.o
         0          0          0          8          0          0   mvars.o
      1172         52          0          0          0        324   printf8.o
        36         12          0          4          0        120   rand.o
        44          0          0          0          0         72   uidiv.o
        96          0          0          0          0         84   uldiv.o
       240          6          0          0          0         84   ddiv.o
       236          0          0          0          0        216   depilogue.o
        64         10          0          0          0         68   dfixul.o
        28          4          0          0          0         68   dfltui.o
        28          6          0          0          0         68   dfltul.o
       208          6          0          0          0         88   dmul.o

    ----------------------------------------------------------------------
      2664        132          0         12          0       1772   Library Totals
         4          0          0          0          0          0   (incl. Padding)

    ----------------------------------------------------------------------

      Code (inc. data)   RO Data    RW Data    ZI Data      Debug   Library Name

      1856        100          0         12          0       1180   mc_p.l
       804         32          0          0          0        592   mf_p.l

    ----------------------------------------------------------------------
      2664        132          0         12          0       1772   Library Totals

    ----------------------------------------------------------------------

==============================================================================


      Code (inc. data)   RO Data    RW Data    ZI Data      Debug   

     23436       3300       3372       1920       7576     695547   Grand Totals
     23436       3300       3372       1536       7576     695547   ELF Image Totals (compressed)
     23436       3300       3372       1536          0          0   ROM Totals

==============================================================================

    Total RO  Size (Code + RO Data)                26808 (  26.18kB)
    Total RW  Size (RW Data + ZI Data)              9496 (   9.27kB)
    Total ROM Size (Code + RO Data + RW Data)      28344 (  27.68kB)

==============================================================================

